
build/firmware.elf:     file format elf64-littleriscv


Disassembly of section .text:

0000000080000000 <_start>:
    80000000:	00040337          	lui	t1,0x40
    80000004:	2315                	addiw	t1,t1,5 # 40005 <_start-0x7ffbfffb>
    80000006:	0336                	slli	t1,t1,0xd
    80000008:	0002f2b7          	lui	t0,0x2f
    8000000c:	ab72829b          	addiw	t0,t0,-1353 # 2eab7 <_start-0x7ffd1549>
    80000010:	02ba                	slli	t0,t0,0xe
    80000012:	0de28293          	addi	t0,t0,222
    80000016:	00532023          	sw	t0,0(t1)
    8000001a:	4081                	li	ra,0
    8000001c:	4101                	li	sp,0
    8000001e:	4181                	li	gp,0
    80000020:	4201                	li	tp,0
    80000022:	4281                	li	t0,0
    80000024:	4301                	li	t1,0
    80000026:	4381                	li	t2,0
    80000028:	4401                	li	s0,0
    8000002a:	4481                	li	s1,0
    8000002c:	4501                	li	a0,0
    8000002e:	4581                	li	a1,0
    80000030:	4601                	li	a2,0
    80000032:	4681                	li	a3,0
    80000034:	4701                	li	a4,0
    80000036:	4781                	li	a5,0
    80000038:	4801                	li	a6,0
    8000003a:	4881                	li	a7,0
    8000003c:	4901                	li	s2,0
    8000003e:	4981                	li	s3,0
    80000040:	4a01                	li	s4,0
    80000042:	4a81                	li	s5,0
    80000044:	4b01                	li	s6,0
    80000046:	4b81                	li	s7,0
    80000048:	4c01                	li	s8,0
    8000004a:	4c81                	li	s9,0
    8000004c:	4d01                	li	s10,0
    8000004e:	4d81                	li	s11,0
    80000050:	4e01                	li	t3,0
    80000052:	4e81                	li	t4,0
    80000054:	4f01                	li	t5,0
    80000056:	4f81                	li	t6,0
    80000058:	00000297          	auipc	t0,0x0
    8000005c:	2fa28293          	addi	t0,t0,762 # 80000352 <isr_vector>
    80000060:	30529073          	csrw	mtvec,t0
    80000064:	00002197          	auipc	gp,0x2
    80000068:	c0418193          	addi	gp,gp,-1020 # 80001c68 <__global_pointer$>
    8000006c:	00080237          	lui	tp,0x80
    80000070:	2215                	addiw	tp,tp,5 # 80005 <_start-0x7ff7fffb>
    80000072:	0232                	slli	tp,tp,0xc
    80000074:	50020213          	addi	tp,tp,1280 # 500 <_start-0x7ffffb00>
    80000078:	00080137          	lui	sp,0x80
    8000007c:	2115                	addiw	sp,sp,5 # 80005 <_start-0x7ff7fffb>
    8000007e:	0132                	slli	sp,sp,0xc
    80000080:	f1402573          	csrr	a0,mhartid
    80000084:	4585                	li	a1,1
    80000086:	0fa000ef          	jal	ra,80000180 <system_init>
    8000008a:	350000ef          	jal	ra,800003da <main>

000000008000008e <infinite_loop>:
    8000008e:	a001                	j	8000008e <infinite_loop>
	...

0000000080000092 <plic_set_bit>:
    80000092:	4785                	li	a5,1
    80000094:	00b797bb          	sllw	a5,a5,a1
    80000098:	410c                	lw	a1,0(a0)
    8000009a:	8ddd                	or	a1,a1,a5
    8000009c:	c10c                	sw	a1,0(a0)
    8000009e:	8082                	ret

00000000800000a0 <plic_enable_for_hart>:
    800000a0:	0055151b          	slliw	a0,a0,0x5
    800000a4:	1502                	slli	a0,a0,0x20
    800000a6:	8179                	srli	a0,a0,0x1e
    800000a8:	0c0027b7          	lui	a5,0xc002
    800000ac:	953e                	add	a0,a0,a5
    800000ae:	b7d5                	j	80000092 <plic_set_bit>

00000000800000b0 <plic_set_priority>:
    800000b0:	02051793          	slli	a5,a0,0x20
    800000b4:	01e7d513          	srli	a0,a5,0x1e
    800000b8:	0c0007b7          	lui	a5,0xc000
    800000bc:	97aa                	add	a5,a5,a0
    800000be:	c38c                	sw	a1,0(a5)
    800000c0:	8082                	ret

00000000800000c2 <plic_claim_irq>:
    800000c2:	02051793          	slli	a5,a0,0x20
    800000c6:	01d7d513          	srli	a0,a5,0x1d
    800000ca:	0c2007b7          	lui	a5,0xc200
    800000ce:	97aa                	add	a5,a5,a0
    800000d0:	43c8                	lw	a0,4(a5)
    800000d2:	8082                	ret

00000000800000d4 <plic_complete_irq>:
    800000d4:	02051793          	slli	a5,a0,0x20
    800000d8:	01d7d513          	srli	a0,a5,0x1d
    800000dc:	0c2007b7          	lui	a5,0xc200
    800000e0:	97aa                	add	a5,a5,a0
    800000e2:	c3cc                	sw	a1,4(a5)
    800000e4:	8082                	ret

00000000800000e6 <print_fcsr>:
    800000e6:	7175                	addi	sp,sp,-144
    800000e8:	e506                	sd	ra,136(sp)
    800000ea:	00302673          	frcsr	a2
    800000ee:	00001597          	auipc	a1,0x1
    800000f2:	1da58593          	addi	a1,a1,474 # 800012c8 <__errno+0x74>
    800000f6:	850a                	mv	a0,sp
    800000f8:	44c000ef          	jal	ra,80000544 <siprintf>
    800000fc:	850a                	mv	a0,sp
    800000fe:	49c000ef          	jal	ra,8000059a <strlen>
    80000102:	03051613          	slli	a2,a0,0x30
    80000106:	4681                	li	a3,0
    80000108:	9241                	srli	a2,a2,0x30
    8000010a:	858a                	mv	a1,sp
    8000010c:	1001a537          	lui	a0,0x1001a
    80000110:	1e6000ef          	jal	ra,800002f6 <HAL_UART_transmit>
    80000114:	30102673          	csrr	a2,misa
    80000118:	00001597          	auipc	a1,0x1
    8000011c:	1c058593          	addi	a1,a1,448 # 800012d8 <__errno+0x84>
    80000120:	850a                	mv	a0,sp
    80000122:	422000ef          	jal	ra,80000544 <siprintf>
    80000126:	850a                	mv	a0,sp
    80000128:	472000ef          	jal	ra,8000059a <strlen>
    8000012c:	03051613          	slli	a2,a0,0x30
    80000130:	4681                	li	a3,0
    80000132:	9241                	srli	a2,a2,0x30
    80000134:	858a                	mv	a1,sp
    80000136:	1001a537          	lui	a0,0x1001a
    8000013a:	1bc000ef          	jal	ra,800002f6 <HAL_UART_transmit>
    8000013e:	f1202673          	csrr	a2,marchid
    80000142:	00001597          	auipc	a1,0x1
    80000146:	1ae58593          	addi	a1,a1,430 # 800012f0 <__errno+0x9c>
    8000014a:	850a                	mv	a0,sp
    8000014c:	3f8000ef          	jal	ra,80000544 <siprintf>
    80000150:	850a                	mv	a0,sp
    80000152:	448000ef          	jal	ra,8000059a <strlen>
    80000156:	03051613          	slli	a2,a0,0x30
    8000015a:	858a                	mv	a1,sp
    8000015c:	4681                	li	a3,0
    8000015e:	9241                	srli	a2,a2,0x30
    80000160:	1001a537          	lui	a0,0x1001a
    80000164:	192000ef          	jal	ra,800002f6 <HAL_UART_transmit>
    80000168:	60aa                	ld	ra,136(sp)
    8000016a:	6149                	addi	sp,sp,144
    8000016c:	8082                	ret

000000008000016e <enable_fpu>:
    8000016e:	300027f3          	csrr	a5,mstatus
    80000172:	6709                	lui	a4,0x2
    80000174:	8fd9                	or	a5,a5,a4
    80000176:	30079073          	csrw	mstatus,a5
    8000017a:	00307073          	csrci	fcsr,0
    8000017e:	8082                	ret

0000000080000180 <system_init>:
    80000180:	6321                	lui	t1,0x8
    80000182:	0203031b          	addiw	t1,t1,32 # 8020 <_start-0x7fff7fe0>
    80000186:	4285                	li	t0,1
    80000188:	00532023          	sw	t0,0(t1)
    8000018c:	b7cd                	j	8000016e <enable_fpu>

000000008000018e <UserSoftware_IRQn_Handler>:
    8000018e:	8082                	ret

0000000080000190 <SupervisorSoftware_IRQn_Handler>:
    80000190:	8082                	ret

0000000080000192 <HypervisorSoftware_IRQn_Handler>:
    80000192:	8082                	ret

0000000080000194 <MachineSoftware_IRQn_Handler>:
    80000194:	8082                	ret

0000000080000196 <UserTimer_IRQn_Handler>:
    80000196:	8082                	ret

0000000080000198 <SupervisorTimer_IRQn_Handler>:
    80000198:	8082                	ret

000000008000019a <HypervisorTimer_IRQn_Handler>:
    8000019a:	8082                	ret

000000008000019c <MachineTimer_IRQn_Handler>:
    8000019c:	8082                	ret

000000008000019e <UserExternal_IRQn_Handler>:
    8000019e:	8082                	ret

00000000800001a0 <SupervisorExternal_IRQn_Handler>:
    800001a0:	8082                	ret

00000000800001a2 <HypervisorExternal_IRQn_Handler>:
    800001a2:	8082                	ret

00000000800001a4 <MachineExternal_IRQn_Handler>:
    800001a4:	1101                	addi	sp,sp,-32
    800001a6:	850a                	mv	a0,sp
    800001a8:	4601                	li	a2,0
    800001aa:	00001597          	auipc	a1,0x1
    800001ae:	15e58593          	addi	a1,a1,350 # 80001308 <__errno+0xb4>
    800001b2:	ec06                	sd	ra,24(sp)
    800001b4:	390000ef          	jal	ra,80000544 <siprintf>
    800001b8:	60e2                	ld	ra,24(sp)
    800001ba:	6105                	addi	sp,sp,32
    800001bc:	8082                	ret

00000000800001be <trap_handler>:
    800001be:	342027f3          	csrr	a5,mcause
    800001c2:	0007871b          	sext.w	a4,a5
    800001c6:	01f7d79b          	srliw	a5,a5,0x1f
    800001ca:	cf95                	beqz	a5,80000206 <trap_handler+0x48>
    800001cc:	1141                	addi	sp,sp,-16
    800001ce:	800007b7          	lui	a5,0x80000
    800001d2:	e406                	sd	ra,8(sp)
    800001d4:	00378693          	addi	a3,a5,3 # ffffffff80000003 <__global_pointer$+0xfffffffeffffe39b>
    800001d8:	00d71f63          	bne	a4,a3,800001f6 <trap_handler+0x38>
    800001dc:	020007b7          	lui	a5,0x2000
    800001e0:	0007a023          	sw	zero,0(a5) # 2000000 <_start-0x7e000000>
    800001e4:	4501                	li	a0,0
    800001e6:	eddff0ef          	jal	ra,800000c2 <plic_claim_irq>
    800001ea:	60a2                	ld	ra,8(sp)
    800001ec:	0005059b          	sext.w	a1,a0
    800001f0:	4501                	li	a0,0
    800001f2:	0141                	addi	sp,sp,16
    800001f4:	b5c5                	j	800000d4 <plic_complete_irq>
    800001f6:	079d                	addi	a5,a5,7
    800001f8:	fef716e3          	bne	a4,a5,800001e4 <trap_handler+0x26>
    800001fc:	020047b7          	lui	a5,0x2004
    80000200:	577d                	li	a4,-1
    80000202:	e398                	sd	a4,0(a5)
    80000204:	b7c5                	j	800001e4 <trap_handler+0x26>
    80000206:	8082                	ret

0000000080000208 <HAL_init>:
    80000208:	8082                	ret

000000008000020a <HAL_getTick>:
    8000020a:	a0b9                	j	80000258 <HAL_CLINT_getMTime>

000000008000020c <HAL_delay>:
    8000020c:	1141                	addi	sp,sp,-16
    8000020e:	e022                	sd	s0,0(sp)
    80000210:	e406                	sd	ra,8(sp)
    80000212:	842a                	mv	s0,a0
    80000214:	044000ef          	jal	ra,80000258 <HAL_CLINT_getMTime>
    80000218:	47a9                	li	a5,10
    8000021a:	02f40433          	mul	s0,s0,a5
    8000021e:	942a                	add	s0,s0,a0
    80000220:	038000ef          	jal	ra,80000258 <HAL_CLINT_getMTime>
    80000224:	fe856ee3          	bltu	a0,s0,80000220 <HAL_delay+0x14>
    80000228:	60a2                	ld	ra,8(sp)
    8000022a:	6402                	ld	s0,0(sp)
    8000022c:	0141                	addi	sp,sp,16
    8000022e:	8082                	ret

0000000080000230 <HAL_CORE_enableInterrupt>:
    80000230:	47a1                	li	a5,8
    80000232:	3007a073          	csrs	mstatus,a5
    80000236:	8082                	ret

0000000080000238 <HAL_CORE_enableIRQ>:
    80000238:	4785                	li	a5,1
    8000023a:	00a797bb          	sllw	a5,a5,a0
    8000023e:	3047a073          	csrs	mie,a5
    80000242:	8082                	ret

0000000080000244 <HAL_CLINT_triggerInterrupt>:
    80000244:	020006b7          	lui	a3,0x2000
    80000248:	429c                	lw	a5,0(a3)
    8000024a:	4705                	li	a4,1
    8000024c:	00a7173b          	sllw	a4,a4,a0
    80000250:	8fd9                	or	a5,a5,a4
    80000252:	2781                	sext.w	a5,a5
    80000254:	c29c                	sw	a5,0(a3)
    80000256:	8082                	ret

0000000080000258 <HAL_CLINT_getMTime>:
    80000258:	0200c737          	lui	a4,0x200c
    8000025c:	ffc76783          	lwu	a5,-4(a4) # 200bffc <_start-0x7dff4004>
    80000260:	ff876503          	lwu	a0,-8(a4)
    80000264:	1782                	slli	a5,a5,0x20
    80000266:	8d5d                	or	a0,a0,a5
    80000268:	8082                	ret

000000008000026a <HAL_CLINT_setMTimeCmp>:
    8000026a:	020047b7          	lui	a5,0x2004
    8000026e:	c388                	sw	a0,0(a5)
    80000270:	9101                	srli	a0,a0,0x20
    80000272:	c3c8                	sw	a0,4(a5)
    80000274:	8082                	ret

0000000080000276 <HAL_GPIO_init>:
    80000276:	451c                	lw	a5,8(a0)
    80000278:	8fcd                	or	a5,a5,a1
    8000027a:	c51c                	sw	a5,8(a0)
    8000027c:	8082                	ret

000000008000027e <HAL_GPIO_readPin>:
    8000027e:	4108                	lw	a0,0(a0)
    80000280:	8d6d                	and	a0,a0,a1
    80000282:	00a03533          	snez	a0,a0
    80000286:	8082                	ret

0000000080000288 <HAL_GPIO_writePin>:
    80000288:	455c                	lw	a5,12(a0)
    8000028a:	c601                	beqz	a2,80000292 <HAL_GPIO_writePin+0xa>
    8000028c:	8fcd                	or	a5,a5,a1
    8000028e:	c55c                	sw	a5,12(a0)
    80000290:	8082                	ret
    80000292:	fff5c593          	not	a1,a1
    80000296:	8dfd                	and	a1,a1,a5
    80000298:	c54c                	sw	a1,12(a0)
    8000029a:	8082                	ret

000000008000029c <HAL_RCC_InitSystemClock>:
    8000029c:	8082                	ret

000000008000029e <HAL_UART_init>:
    8000029e:	455c                	lw	a5,12(a0)
    800002a0:	4198                	lw	a4,0(a1)
    800002a2:	0017e793          	ori	a5,a5,1
    800002a6:	c55c                	sw	a5,12(a0)
    800002a8:	451c                	lw	a5,8(a0)
    800002aa:	0017e793          	ori	a5,a5,1
    800002ae:	c51c                	sw	a5,8(a0)
    800002b0:	000317b7          	lui	a5,0x31
    800002b4:	d407879b          	addiw	a5,a5,-704 # 30d40 <_start-0x7ffcf2c0>
    800002b8:	02e7d7bb          	divuw	a5,a5,a4
    800002bc:	37fd                	addiw	a5,a5,-1
    800002be:	cd1c                	sw	a5,24(a0)
    800002c0:	8082                	ret

00000000800002c2 <HAL_UART_getRXFIFODepth>:
    800002c2:	4548                	lw	a0,12(a0)
    800002c4:	0105551b          	srliw	a0,a0,0x10
    800002c8:	891d                	andi	a0,a0,7
    800002ca:	8082                	ret

00000000800002cc <HAL_UART_getTXFIFODepth>:
    800002cc:	4508                	lw	a0,8(a0)
    800002ce:	0105551b          	srliw	a0,a0,0x10
    800002d2:	891d                	andi	a0,a0,7
    800002d4:	8082                	ret

00000000800002d6 <HAL_UART_receive>:
    800002d6:	e219                	bnez	a2,800002dc <HAL_UART_receive+0x6>
    800002d8:	4501                	li	a0,0
    800002da:	8082                	ret
    800002dc:	455c                	lw	a5,12(a0)
    800002de:	0107d79b          	srliw	a5,a5,0x10
    800002e2:	8b9d                	andi	a5,a5,7
    800002e4:	dfe5                	beqz	a5,800002dc <HAL_UART_receive+0x6>
    800002e6:	415c                	lw	a5,4(a0)
    800002e8:	367d                	addiw	a2,a2,-1
    800002ea:	1642                	slli	a2,a2,0x30
    800002ec:	00f58023          	sb	a5,0(a1)
    800002f0:	9241                	srli	a2,a2,0x30
    800002f2:	0585                	addi	a1,a1,1
    800002f4:	b7cd                	j	800002d6 <HAL_UART_receive>

00000000800002f6 <HAL_UART_transmit>:
    800002f6:	e219                	bnez	a2,800002fc <HAL_UART_transmit+0x6>
    800002f8:	4501                	li	a0,0
    800002fa:	8082                	ret
    800002fc:	451c                	lw	a5,8(a0)
    800002fe:	0107d79b          	srliw	a5,a5,0x10
    80000302:	8b9d                	andi	a5,a5,7
    80000304:	ffe5                	bnez	a5,800002fc <HAL_UART_transmit+0x6>
    80000306:	0005c783          	lbu	a5,0(a1)
    8000030a:	367d                	addiw	a2,a2,-1
    8000030c:	1642                	slli	a2,a2,0x30
    8000030e:	c11c                	sw	a5,0(a0)
    80000310:	0585                	addi	a1,a1,1
    80000312:	9241                	srli	a2,a2,0x30
    80000314:	b7cd                	j	800002f6 <HAL_UART_transmit>

0000000080000316 <memcpy>:
    80000316:	832a                	mv	t1,a0
    80000318:	ca09                	beqz	a2,8000032a <memcpy+0x14>
    8000031a:	00058383          	lb	t2,0(a1)
    8000031e:	00730023          	sb	t2,0(t1)
    80000322:	167d                	addi	a2,a2,-1
    80000324:	0305                	addi	t1,t1,1
    80000326:	0585                	addi	a1,a1,1
    80000328:	fa6d                	bnez	a2,8000031a <memcpy+0x4>
    8000032a:	8082                	ret

000000008000032c <memmove>:
    8000032c:	c215                	beqz	a2,80000350 <memmove+0x24>
    8000032e:	832a                	mv	t1,a0
    80000330:	4685                	li	a3,1
    80000332:	00b56763          	bltu	a0,a1,80000340 <memmove+0x14>
    80000336:	56fd                	li	a3,-1
    80000338:	fff60713          	addi	a4,a2,-1
    8000033c:	933a                	add	t1,t1,a4
    8000033e:	95ba                	add	a1,a1,a4
    80000340:	00058383          	lb	t2,0(a1)
    80000344:	00730023          	sb	t2,0(t1)
    80000348:	167d                	addi	a2,a2,-1
    8000034a:	9336                	add	t1,t1,a3
    8000034c:	95b6                	add	a1,a1,a3
    8000034e:	fa6d                	bnez	a2,80000340 <memmove+0x14>
    80000350:	8082                	ret

Disassembly of section .text.isr_vector:

0000000080000352 <isr_vector>:
    80000352:	7119                	addi	sp,sp,-128
    80000354:	c206                	sw	ra,4(sp)
    80000356:	c40a                	sw	sp,8(sp)
    80000358:	c60e                	sw	gp,12(sp)
    8000035a:	c812                	sw	tp,16(sp)
    8000035c:	ca16                	sw	t0,20(sp)
    8000035e:	cc1a                	sw	t1,24(sp)
    80000360:	ce1e                	sw	t2,28(sp)
    80000362:	d022                	sw	s0,32(sp)
    80000364:	d226                	sw	s1,36(sp)
    80000366:	d42a                	sw	a0,40(sp)
    80000368:	d62e                	sw	a1,44(sp)
    8000036a:	d832                	sw	a2,48(sp)
    8000036c:	da36                	sw	a3,52(sp)
    8000036e:	dc3a                	sw	a4,56(sp)
    80000370:	de3e                	sw	a5,60(sp)
    80000372:	c0c2                	sw	a6,64(sp)
    80000374:	c2c6                	sw	a7,68(sp)
    80000376:	c4ca                	sw	s2,72(sp)
    80000378:	c6ce                	sw	s3,76(sp)
    8000037a:	c8d2                	sw	s4,80(sp)
    8000037c:	cad6                	sw	s5,84(sp)
    8000037e:	ccda                	sw	s6,88(sp)
    80000380:	cede                	sw	s7,92(sp)
    80000382:	d0e2                	sw	s8,96(sp)
    80000384:	d2e6                	sw	s9,100(sp)
    80000386:	d4ea                	sw	s10,104(sp)
    80000388:	d6ee                	sw	s11,108(sp)
    8000038a:	d8f2                	sw	t3,112(sp)
    8000038c:	daf6                	sw	t4,116(sp)
    8000038e:	dcfa                	sw	t5,120(sp)
    80000390:	defe                	sw	t6,124(sp)
    80000392:	e2dff0ef          	jal	ra,800001be <trap_handler>
    80000396:	4092                	lw	ra,4(sp)
    80000398:	4122                	lw	sp,8(sp)
    8000039a:	41b2                	lw	gp,12(sp)
    8000039c:	4242                	lw	tp,16(sp)
    8000039e:	42d2                	lw	t0,20(sp)
    800003a0:	4362                	lw	t1,24(sp)
    800003a2:	43f2                	lw	t2,28(sp)
    800003a4:	5402                	lw	s0,32(sp)
    800003a6:	5492                	lw	s1,36(sp)
    800003a8:	5522                	lw	a0,40(sp)
    800003aa:	55b2                	lw	a1,44(sp)
    800003ac:	5642                	lw	a2,48(sp)
    800003ae:	56d2                	lw	a3,52(sp)
    800003b0:	5762                	lw	a4,56(sp)
    800003b2:	57f2                	lw	a5,60(sp)
    800003b4:	4806                	lw	a6,64(sp)
    800003b6:	4896                	lw	a7,68(sp)
    800003b8:	4926                	lw	s2,72(sp)
    800003ba:	49b6                	lw	s3,76(sp)
    800003bc:	4a46                	lw	s4,80(sp)
    800003be:	4ad6                	lw	s5,84(sp)
    800003c0:	4b66                	lw	s6,88(sp)
    800003c2:	4bf6                	lw	s7,92(sp)
    800003c4:	5c06                	lw	s8,96(sp)
    800003c6:	5c96                	lw	s9,100(sp)
    800003c8:	5d26                	lw	s10,104(sp)
    800003ca:	5db6                	lw	s11,108(sp)
    800003cc:	5e46                	lw	t3,112(sp)
    800003ce:	5ed6                	lw	t4,116(sp)
    800003d0:	5f66                	lw	t5,120(sp)
    800003d2:	5ff6                	lw	t6,124(sp)
    800003d4:	6109                	addi	sp,sp,128
    800003d6:	30200073          	mret

Disassembly of section .text.startup:

00000000800003da <main>:
    800003da:	7159                	addi	sp,sp,-112
    800003dc:	f486                	sd	ra,104(sp)
    800003de:	f0a2                	sd	s0,96(sp)
    800003e0:	eca6                	sd	s1,88(sp)
    800003e2:	e8ca                	sd	s2,80(sp)
    800003e4:	e4ce                	sd	s3,72(sp)
    800003e6:	e0d2                	sd	s4,64(sp)
    800003e8:	fc56                	sd	s5,56(sp)
    800003ea:	b422                	fsd	fs0,40(sp)
    800003ec:	b026                	fsd	fs1,32(sp)
    800003ee:	ac4a                	fsd	fs2,24(sp)
    800003f0:	a84e                	fsd	fs3,16(sp)
    800003f2:	e17ff0ef          	jal	ra,80000208 <HAL_init>
    800003f6:	6789                	lui	a5,0x2
    800003f8:	71078793          	addi	a5,a5,1808 # 2710 <_start-0x7fffd8f0>
    800003fc:	002c                	addi	a1,sp,8
    800003fe:	1001a537          	lui	a0,0x1001a
    80000402:	c43e                	sw	a5,8(sp)
    80000404:	e9bff0ef          	jal	ra,8000029e <HAL_UART_init>
    80000408:	cdfff0ef          	jal	ra,800000e6 <print_fcsr>
    8000040c:	cdbff0ef          	jal	ra,800000e6 <print_fcsr>
    80000410:	00001597          	auipc	a1,0x1
    80000414:	e5058593          	addi	a1,a1,-432 # 80001260 <__errno+0xc>
    80000418:	86018513          	addi	a0,gp,-1952 # 800014c8 <str>
    8000041c:	16c000ef          	jal	ra,80000588 <strcpy>
    80000420:	86018513          	addi	a0,gp,-1952 # 800014c8 <str>
    80000424:	176000ef          	jal	ra,8000059a <strlen>
    80000428:	03051613          	slli	a2,a0,0x30
    8000042c:	4681                	li	a3,0
    8000042e:	9241                	srli	a2,a2,0x30
    80000430:	86018593          	addi	a1,gp,-1952 # 800014c8 <str>
    80000434:	1001a537          	lui	a0,0x1001a
    80000438:	ebfff0ef          	jal	ra,800002f6 <HAL_UART_transmit>
    8000043c:	000807b7          	lui	a5,0x80
    80000440:	07ad                	addi	a5,a5,11 # 8000b <_start-0x7ff7fff5>
    80000442:	deadc737          	lui	a4,0xdeadc
    80000446:	07b2                	slli	a5,a5,0xc
    80000448:	eef70713          	addi	a4,a4,-273 # ffffffffdeadbeef <__global_pointer$+0xffffffff5eada287>
    8000044c:	c398                	sw	a4,0(a5)
    8000044e:	00001797          	auipc	a5,0x1
    80000452:	01a7a407          	flw	fs0,26(a5) # 80001468 <impure_data+0xb0>
    80000456:	208409d3          	fmv.s	fs3,fs0
    8000045a:	00001797          	auipc	a5,0x1
    8000045e:	0127a487          	flw	fs1,18(a5) # 8000146c <impure_data+0xb4>
    80000462:	490d                	li	s2,3
    80000464:	44a9                	li	s1,10
    80000466:	4a8d                	li	s5,3
    80000468:	00001a17          	auipc	s4,0x1
    8000046c:	e18a0a13          	addi	s4,s4,-488 # 80001280 <__errno+0x2c>
    80000470:	86018413          	addi	s0,gp,-1952 # 800014c8 <str>
    80000474:	00001797          	auipc	a5,0x1
    80000478:	ffc7a907          	flw	fs2,-4(a5) # 80001470 <impure_data+0xb8>
    8000047c:	00001997          	auipc	s3,0x1
    80000480:	e2498993          	addi	s3,s3,-476 # 800012a0 <__errno+0x4c>
    80000484:	029a84bb          	mulw	s1,s5,s1
    80000488:	2905                	addiw	s2,s2,1
    8000048a:	86ca                	mv	a3,s2
    8000048c:	85d2                	mv	a1,s4
    8000048e:	8522                	mv	a0,s0
    80000490:	0324c73b          	divw	a4,s1,s2
    80000494:	8626                	mv	a2,s1
    80000496:	0ae000ef          	jal	ra,80000544 <siprintf>
    8000049a:	8522                	mv	a0,s0
    8000049c:	0fe000ef          	jal	ra,8000059a <strlen>
    800004a0:	03051613          	slli	a2,a0,0x30
    800004a4:	85a2                	mv	a1,s0
    800004a6:	4681                	li	a3,0
    800004a8:	9241                	srli	a2,a2,0x30
    800004aa:	1001a537          	lui	a0,0x1001a
    800004ae:	e49ff0ef          	jal	ra,800002f6 <HAL_UART_transmit>
    800004b2:	06400513          	li	a0,100
    800004b6:	d57ff0ef          	jal	ra,8000020c <HAL_delay>
    800004ba:	1134f4d3          	fmul.s	fs1,fs1,fs3
    800004be:	01247453          	fadd.s	fs0,fs0,fs2
    800004c2:	85ce                	mv	a1,s3
    800004c4:	8522                	mv	a0,s0
    800004c6:	1884f7d3          	fdiv.s	fa5,fs1,fs0
    800004ca:	420787d3          	fcvt.d.s	fa5,fa5
    800004ce:	e2078753          	fmv.x.d	a4,fa5
    800004d2:	420407d3          	fcvt.d.s	fa5,fs0
    800004d6:	e20786d3          	fmv.x.d	a3,fa5
    800004da:	420487d3          	fcvt.d.s	fa5,fs1
    800004de:	e2078653          	fmv.x.d	a2,fa5
    800004e2:	062000ef          	jal	ra,80000544 <siprintf>
    800004e6:	06400513          	li	a0,100
    800004ea:	d23ff0ef          	jal	ra,8000020c <HAL_delay>
    800004ee:	8522                	mv	a0,s0
    800004f0:	0aa000ef          	jal	ra,8000059a <strlen>
    800004f4:	03051613          	slli	a2,a0,0x30
    800004f8:	4681                	li	a3,0
    800004fa:	9241                	srli	a2,a2,0x30
    800004fc:	85a2                	mv	a1,s0
    800004fe:	1001a537          	lui	a0,0x1001a
    80000502:	df5ff0ef          	jal	ra,800002f6 <HAL_UART_transmit>
    80000506:	bfbd                	j	80000484 <main+0xaa>

Disassembly of section .text._sprintf_r:

0000000080000508 <_siprintf_r>:
    80000508:	7111                	addi	sp,sp,-256
    8000050a:	f5be                	sd	a5,232(sp)
    8000050c:	800007b7          	lui	a5,0x80000
    80000510:	fff7c793          	not	a5,a5
    80000514:	d83e                	sw	a5,48(sp)
    80000516:	ce3e                	sw	a5,28(sp)
    80000518:	77c1                	lui	a5,0xffff0
    8000051a:	edb6                	sd	a3,216(sp)
    8000051c:	e82e                	sd	a1,16(sp)
    8000051e:	f42e                	sd	a1,40(sp)
    80000520:	20878793          	addi	a5,a5,520 # ffffffffffff0208 <__global_pointer$+0xffffffff7ffee5a0>
    80000524:	09b4                	addi	a3,sp,216
    80000526:	080c                	addi	a1,sp,16
    80000528:	e586                	sd	ra,200(sp)
    8000052a:	d03e                	sw	a5,32(sp)
    8000052c:	f1ba                	sd	a4,224(sp)
    8000052e:	f9c2                	sd	a6,240(sp)
    80000530:	fdc6                	sd	a7,248(sp)
    80000532:	e436                	sd	a3,8(sp)
    80000534:	2a8000ef          	jal	ra,800007dc <_svfiprintf_r>
    80000538:	67c2                	ld	a5,16(sp)
    8000053a:	00078023          	sb	zero,0(a5)
    8000053e:	60ae                	ld	ra,200(sp)
    80000540:	6111                	addi	sp,sp,256
    80000542:	8082                	ret

Disassembly of section .text.sprintf:

0000000080000544 <siprintf>:
    80000544:	7111                	addi	sp,sp,-256
    80000546:	f5be                	sd	a5,232(sp)
    80000548:	800007b7          	lui	a5,0x80000
    8000054c:	fff7c793          	not	a5,a5
    80000550:	d83e                	sw	a5,48(sp)
    80000552:	ce3e                	sw	a5,28(sp)
    80000554:	77c1                	lui	a5,0xffff0
    80000556:	e9b2                	sd	a2,208(sp)
    80000558:	edb6                	sd	a3,216(sp)
    8000055a:	e82a                	sd	a0,16(sp)
    8000055c:	f42a                	sd	a0,40(sp)
    8000055e:	20878793          	addi	a5,a5,520 # ffffffffffff0208 <__global_pointer$+0xffffffff7ffee5a0>
    80000562:	0994                	addi	a3,sp,208
    80000564:	862e                	mv	a2,a1
    80000566:	8301b503          	ld	a0,-2000(gp) # 80001498 <_impure_ptr>
    8000056a:	080c                	addi	a1,sp,16
    8000056c:	e586                	sd	ra,200(sp)
    8000056e:	d03e                	sw	a5,32(sp)
    80000570:	f1ba                	sd	a4,224(sp)
    80000572:	f9c2                	sd	a6,240(sp)
    80000574:	fdc6                	sd	a7,248(sp)
    80000576:	e436                	sd	a3,8(sp)
    80000578:	264000ef          	jal	ra,800007dc <_svfiprintf_r>
    8000057c:	67c2                	ld	a5,16(sp)
    8000057e:	00078023          	sb	zero,0(a5)
    80000582:	60ae                	ld	ra,200(sp)
    80000584:	6111                	addi	sp,sp,256
    80000586:	8082                	ret

Disassembly of section .text.strcpy:

0000000080000588 <strcpy>:
    80000588:	87aa                	mv	a5,a0
    8000058a:	0005c703          	lbu	a4,0(a1)
    8000058e:	0785                	addi	a5,a5,1
    80000590:	0585                	addi	a1,a1,1
    80000592:	fee78fa3          	sb	a4,-1(a5)
    80000596:	fb75                	bnez	a4,8000058a <strcpy+0x2>
    80000598:	8082                	ret

Disassembly of section .text.strlen:

000000008000059a <strlen>:
    8000059a:	87aa                	mv	a5,a0
    8000059c:	0007c703          	lbu	a4,0(a5)
    800005a0:	0785                	addi	a5,a5,1
    800005a2:	ff6d                	bnez	a4,8000059c <strlen+0x2>
    800005a4:	40a78533          	sub	a0,a5,a0
    800005a8:	157d                	addi	a0,a0,-1 # 10019fff <_start-0x6ffe6001>
    800005aa:	8082                	ret

Disassembly of section .text.__ssputs_r:

00000000800005ac <__ssputs_r>:
    800005ac:	7139                	addi	sp,sp,-64
    800005ae:	f04a                	sd	s2,32(sp)
    800005b0:	00c5a903          	lw	s2,12(a1)
    800005b4:	f822                	sd	s0,48(sp)
    800005b6:	ec4e                	sd	s3,24(sp)
    800005b8:	e456                	sd	s5,8(sp)
    800005ba:	fc06                	sd	ra,56(sp)
    800005bc:	f426                	sd	s1,40(sp)
    800005be:	e852                	sd	s4,16(sp)
    800005c0:	e05a                	sd	s6,0(sp)
    800005c2:	6198                	ld	a4,0(a1)
    800005c4:	842e                	mv	s0,a1
    800005c6:	8ab2                	mv	s5,a2
    800005c8:	89b6                	mv	s3,a3
    800005ca:	0726ed63          	bltu	a3,s2,80000644 <__ssputs_r+0x98>
    800005ce:	01059783          	lh	a5,16(a1)
    800005d2:	4807f693          	andi	a3,a5,1152
    800005d6:	c6ad                	beqz	a3,80000640 <__ssputs_r+0x94>
    800005d8:	5014                	lw	a3,32(s0)
    800005da:	448d                	li	s1,3
    800005dc:	6d8c                	ld	a1,24(a1)
    800005de:	02d484bb          	mulw	s1,s1,a3
    800005e2:	4689                	li	a3,2
    800005e4:	8f0d                	sub	a4,a4,a1
    800005e6:	00070b1b          	sext.w	s6,a4
    800005ea:	8a2a                	mv	s4,a0
    800005ec:	02d4c4bb          	divw	s1,s1,a3
    800005f0:	00198693          	addi	a3,s3,1
    800005f4:	96da                	add	a3,a3,s6
    800005f6:	00d4f563          	bgeu	s1,a3,80000600 <__ssputs_r+0x54>
    800005fa:	0019849b          	addiw	s1,s3,1
    800005fe:	9cb9                	addw	s1,s1,a4
    80000600:	4007f793          	andi	a5,a5,1024
    80000604:	cbad                	beqz	a5,80000676 <__ssputs_r+0xca>
    80000606:	85a6                	mv	a1,s1
    80000608:	8552                	mv	a0,s4
    8000060a:	12d000ef          	jal	ra,80000f36 <_malloc_r>
    8000060e:	892a                	mv	s2,a0
    80000610:	cd2d                	beqz	a0,8000068a <__ssputs_r+0xde>
    80000612:	6c0c                	ld	a1,24(s0)
    80000614:	865a                	mv	a2,s6
    80000616:	d01ff0ef          	jal	ra,80000316 <memcpy>
    8000061a:	01045783          	lhu	a5,16(s0)
    8000061e:	b7f7f793          	andi	a5,a5,-1153
    80000622:	0807e793          	ori	a5,a5,128
    80000626:	00f41823          	sh	a5,16(s0)
    8000062a:	01243c23          	sd	s2,24(s0)
    8000062e:	d004                	sw	s1,32(s0)
    80000630:	995a                	add	s2,s2,s6
    80000632:	416484bb          	subw	s1,s1,s6
    80000636:	01243023          	sd	s2,0(s0)
    8000063a:	c444                	sw	s1,12(s0)
    8000063c:	0009891b          	sext.w	s2,s3
    80000640:	0129f463          	bgeu	s3,s2,80000648 <__ssputs_r+0x9c>
    80000644:	0009891b          	sext.w	s2,s3
    80000648:	6008                	ld	a0,0(s0)
    8000064a:	864a                	mv	a2,s2
    8000064c:	85d6                	mv	a1,s5
    8000064e:	cdfff0ef          	jal	ra,8000032c <memmove>
    80000652:	445c                	lw	a5,12(s0)
    80000654:	4501                	li	a0,0
    80000656:	412787bb          	subw	a5,a5,s2
    8000065a:	c45c                	sw	a5,12(s0)
    8000065c:	601c                	ld	a5,0(s0)
    8000065e:	97ca                	add	a5,a5,s2
    80000660:	e01c                	sd	a5,0(s0)
    80000662:	70e2                	ld	ra,56(sp)
    80000664:	7442                	ld	s0,48(sp)
    80000666:	74a2                	ld	s1,40(sp)
    80000668:	7902                	ld	s2,32(sp)
    8000066a:	69e2                	ld	s3,24(sp)
    8000066c:	6a42                	ld	s4,16(sp)
    8000066e:	6aa2                	ld	s5,8(sp)
    80000670:	6b02                	ld	s6,0(sp)
    80000672:	6121                	addi	sp,sp,64
    80000674:	8082                	ret
    80000676:	8626                	mv	a2,s1
    80000678:	8552                	mv	a0,s4
    8000067a:	1db000ef          	jal	ra,80001054 <_realloc_r>
    8000067e:	892a                	mv	s2,a0
    80000680:	f54d                	bnez	a0,8000062a <__ssputs_r+0x7e>
    80000682:	6c0c                	ld	a1,24(s0)
    80000684:	8552                	mv	a0,s4
    80000686:	7b6000ef          	jal	ra,80000e3c <_free_r>
    8000068a:	47b1                	li	a5,12
    8000068c:	00fa2023          	sw	a5,0(s4)
    80000690:	01045783          	lhu	a5,16(s0)
    80000694:	557d                	li	a0,-1
    80000696:	0407e793          	ori	a5,a5,64
    8000069a:	00f41823          	sh	a5,16(s0)
    8000069e:	b7d1                	j	80000662 <__ssputs_r+0xb6>

Disassembly of section .text.__ssprint_r:

00000000800006a0 <__ssprint_r>:
    800006a0:	6a1c                	ld	a5,16(a2)
    800006a2:	711d                	addi	sp,sp,-96
    800006a4:	fc4e                	sd	s3,56(sp)
    800006a6:	f05a                	sd	s6,32(sp)
    800006a8:	ec86                	sd	ra,88(sp)
    800006aa:	e8a2                	sd	s0,80(sp)
    800006ac:	e4a6                	sd	s1,72(sp)
    800006ae:	e0ca                	sd	s2,64(sp)
    800006b0:	f852                	sd	s4,48(sp)
    800006b2:	f456                	sd	s5,40(sp)
    800006b4:	ec5e                	sd	s7,24(sp)
    800006b6:	e862                	sd	s8,16(sp)
    800006b8:	e466                	sd	s9,8(sp)
    800006ba:	e06a                	sd	s10,0(sp)
    800006bc:	00063b03          	ld	s6,0(a2)
    800006c0:	89b2                	mv	s3,a2
    800006c2:	eff9                	bnez	a5,800007a0 <__ssprint_r+0x100>
    800006c4:	4501                	li	a0,0
    800006c6:	60e6                	ld	ra,88(sp)
    800006c8:	6446                	ld	s0,80(sp)
    800006ca:	0009a423          	sw	zero,8(s3)
    800006ce:	64a6                	ld	s1,72(sp)
    800006d0:	6906                	ld	s2,64(sp)
    800006d2:	79e2                	ld	s3,56(sp)
    800006d4:	7a42                	ld	s4,48(sp)
    800006d6:	7aa2                	ld	s5,40(sp)
    800006d8:	7b02                	ld	s6,32(sp)
    800006da:	6be2                	ld	s7,24(sp)
    800006dc:	6c42                	ld	s8,16(sp)
    800006de:	6ca2                	ld	s9,8(sp)
    800006e0:	6d02                	ld	s10,0(sp)
    800006e2:	6125                	addi	sp,sp,96
    800006e4:	8082                	ret
    800006e6:	000b3a83          	ld	s5,0(s6)
    800006ea:	008b3d03          	ld	s10,8(s6)
    800006ee:	0b41                	addi	s6,s6,16
    800006f0:	00c42903          	lw	s2,12(s0)
    800006f4:	601c                	ld	a5,0(s0)
    800006f6:	fe0d08e3          	beqz	s10,800006e6 <__ssprint_r+0x46>
    800006fa:	072d6863          	bltu	s10,s2,8000076a <__ssprint_r+0xca>
    800006fe:	01041703          	lh	a4,16(s0)
    80000702:	48077693          	andi	a3,a4,1152
    80000706:	c2b5                	beqz	a3,8000076a <__ssprint_r+0xca>
    80000708:	5004                	lw	s1,32(s0)
    8000070a:	6c0c                	ld	a1,24(s0)
    8000070c:	029c04bb          	mulw	s1,s8,s1
    80000710:	8f8d                	sub	a5,a5,a1
    80000712:	00078b9b          	sext.w	s7,a5
    80000716:	001b8693          	addi	a3,s7,1
    8000071a:	96ea                	add	a3,a3,s10
    8000071c:	0394c4bb          	divw	s1,s1,s9
    80000720:	00d4f563          	bgeu	s1,a3,8000072a <__ssprint_r+0x8a>
    80000724:	2785                	addiw	a5,a5,1
    80000726:	01a784bb          	addw	s1,a5,s10
    8000072a:	40077713          	andi	a4,a4,1024
    8000072e:	c341                	beqz	a4,800007ae <__ssprint_r+0x10e>
    80000730:	85a6                	mv	a1,s1
    80000732:	8552                	mv	a0,s4
    80000734:	003000ef          	jal	ra,80000f36 <_malloc_r>
    80000738:	892a                	mv	s2,a0
    8000073a:	c541                	beqz	a0,800007c2 <__ssprint_r+0x122>
    8000073c:	6c0c                	ld	a1,24(s0)
    8000073e:	865e                	mv	a2,s7
    80000740:	bd7ff0ef          	jal	ra,80000316 <memcpy>
    80000744:	01045783          	lhu	a5,16(s0)
    80000748:	b7f7f793          	andi	a5,a5,-1153
    8000074c:	0807e793          	ori	a5,a5,128
    80000750:	00f41823          	sh	a5,16(s0)
    80000754:	01243c23          	sd	s2,24(s0)
    80000758:	d004                	sw	s1,32(s0)
    8000075a:	995e                	add	s2,s2,s7
    8000075c:	417484bb          	subw	s1,s1,s7
    80000760:	01243023          	sd	s2,0(s0)
    80000764:	c444                	sw	s1,12(s0)
    80000766:	000d091b          	sext.w	s2,s10
    8000076a:	000d049b          	sext.w	s1,s10
    8000076e:	012d7363          	bgeu	s10,s2,80000774 <__ssprint_r+0xd4>
    80000772:	8926                	mv	s2,s1
    80000774:	6008                	ld	a0,0(s0)
    80000776:	85d6                	mv	a1,s5
    80000778:	864a                	mv	a2,s2
    8000077a:	bb3ff0ef          	jal	ra,8000032c <memmove>
    8000077e:	445c                	lw	a5,12(s0)
    80000780:	9aa6                	add	s5,s5,s1
    80000782:	409d0d33          	sub	s10,s10,s1
    80000786:	412787bb          	subw	a5,a5,s2
    8000078a:	c45c                	sw	a5,12(s0)
    8000078c:	601c                	ld	a5,0(s0)
    8000078e:	97ca                	add	a5,a5,s2
    80000790:	e01c                	sd	a5,0(s0)
    80000792:	0109b783          	ld	a5,16(s3)
    80000796:	8f85                	sub	a5,a5,s1
    80000798:	00f9b823          	sd	a5,16(s3)
    8000079c:	fbb1                	bnez	a5,800006f0 <__ssprint_r+0x50>
    8000079e:	b71d                	j	800006c4 <__ssprint_r+0x24>
    800007a0:	8a2a                	mv	s4,a0
    800007a2:	842e                	mv	s0,a1
    800007a4:	4a81                	li	s5,0
    800007a6:	4d01                	li	s10,0
    800007a8:	4c0d                	li	s8,3
    800007aa:	4c89                	li	s9,2
    800007ac:	b791                	j	800006f0 <__ssprint_r+0x50>
    800007ae:	8626                	mv	a2,s1
    800007b0:	8552                	mv	a0,s4
    800007b2:	0a3000ef          	jal	ra,80001054 <_realloc_r>
    800007b6:	892a                	mv	s2,a0
    800007b8:	fd51                	bnez	a0,80000754 <__ssprint_r+0xb4>
    800007ba:	6c0c                	ld	a1,24(s0)
    800007bc:	8552                	mv	a0,s4
    800007be:	67e000ef          	jal	ra,80000e3c <_free_r>
    800007c2:	47b1                	li	a5,12
    800007c4:	00fa2023          	sw	a5,0(s4)
    800007c8:	01045783          	lhu	a5,16(s0)
    800007cc:	557d                	li	a0,-1
    800007ce:	0407e793          	ori	a5,a5,64
    800007d2:	00f41823          	sh	a5,16(s0)
    800007d6:	0009b823          	sd	zero,16(s3)
    800007da:	b5f5                	j	800006c6 <__ssprint_r+0x26>

Disassembly of section .text._svfprintf_r:

00000000800007dc <_svfiprintf_r>:
    800007dc:	0105d783          	lhu	a5,16(a1)
    800007e0:	7155                	addi	sp,sp,-208
    800007e2:	e1a2                	sd	s0,192(sp)
    800007e4:	fd26                	sd	s1,184(sp)
    800007e6:	f94a                	sd	s2,176(sp)
    800007e8:	f54e                	sd	s3,168(sp)
    800007ea:	f152                	sd	s4,160(sp)
    800007ec:	e586                	sd	ra,200(sp)
    800007ee:	ed56                	sd	s5,152(sp)
    800007f0:	e95a                	sd	s6,144(sp)
    800007f2:	e55e                	sd	s7,136(sp)
    800007f4:	e162                	sd	s8,128(sp)
    800007f6:	fce6                	sd	s9,120(sp)
    800007f8:	f8ea                	sd	s10,112(sp)
    800007fa:	0807f793          	andi	a5,a5,128
    800007fe:	8a2a                	mv	s4,a0
    80000800:	892e                	mv	s2,a1
    80000802:	84b2                	mv	s1,a2
    80000804:	8436                	mv	s0,a3
    80000806:	4981                	li	s3,0
    80000808:	c3b1                	beqz	a5,8000084c <_svfiprintf_r+0x70>
    8000080a:	6d9c                	ld	a5,24(a1)
    8000080c:	e3a1                	bnez	a5,8000084c <_svfiprintf_r+0x70>
    8000080e:	04000593          	li	a1,64
    80000812:	724000ef          	jal	ra,80000f36 <_malloc_r>
    80000816:	00a93023          	sd	a0,0(s2)
    8000081a:	00a93c23          	sd	a0,24(s2)
    8000081e:	e11d                	bnez	a0,80000844 <_svfiprintf_r+0x68>
    80000820:	47b1                	li	a5,12
    80000822:	00fa2023          	sw	a5,0(s4)
    80000826:	557d                	li	a0,-1
    80000828:	60ae                	ld	ra,200(sp)
    8000082a:	640e                	ld	s0,192(sp)
    8000082c:	74ea                	ld	s1,184(sp)
    8000082e:	794a                	ld	s2,176(sp)
    80000830:	79aa                	ld	s3,168(sp)
    80000832:	7a0a                	ld	s4,160(sp)
    80000834:	6aea                	ld	s5,152(sp)
    80000836:	6b4a                	ld	s6,144(sp)
    80000838:	6baa                	ld	s7,136(sp)
    8000083a:	6c0a                	ld	s8,128(sp)
    8000083c:	7ce6                	ld	s9,120(sp)
    8000083e:	7d46                	ld	s10,112(sp)
    80000840:	6169                	addi	sp,sp,208
    80000842:	8082                	ret
    80000844:	04000793          	li	a5,64
    80000848:	02f92023          	sw	a5,32(s2)
    8000084c:	02000793          	li	a5,32
    80000850:	02f104a3          	sb	a5,41(sp)
    80000854:	5afd                	li	s5,-1
    80000856:	03000793          	li	a5,48
    8000085a:	d202                	sw	zero,36(sp)
    8000085c:	02f10523          	sb	a5,42(sp)
    80000860:	e422                	sd	s0,8(sp)
    80000862:	02500b93          	li	s7,37
    80000866:	020a9c13          	slli	s8,s5,0x20
    8000086a:	00001b17          	auipc	s6,0x1
    8000086e:	aaeb0b13          	addi	s6,s6,-1362 # 80001318 <__errno+0xc4>
    80000872:	4c85                	li	s9,1
    80000874:	8426                	mv	s0,s1
    80000876:	00044783          	lbu	a5,0(s0)
    8000087a:	c399                	beqz	a5,80000880 <_svfiprintf_r+0xa4>
    8000087c:	09779c63          	bne	a5,s7,80000914 <_svfiprintf_r+0x138>
    80000880:	40940d3b          	subw	s10,s0,s1
    80000884:	000d0e63          	beqz	s10,800008a0 <_svfiprintf_r+0xc4>
    80000888:	86ea                	mv	a3,s10
    8000088a:	8626                	mv	a2,s1
    8000088c:	85ca                	mv	a1,s2
    8000088e:	8552                	mv	a0,s4
    80000890:	d1dff0ef          	jal	ra,800005ac <__ssputs_r>
    80000894:	1b550563          	beq	a0,s5,80000a3e <_svfiprintf_r+0x262>
    80000898:	5792                	lw	a5,36(sp)
    8000089a:	01a787bb          	addw	a5,a5,s10
    8000089e:	d23e                	sw	a5,36(sp)
    800008a0:	00044783          	lbu	a5,0(s0)
    800008a4:	18078d63          	beqz	a5,80000a3e <_svfiprintf_r+0x262>
    800008a8:	00140493          	addi	s1,s0,1
    800008ac:	e862                	sd	s8,16(sp)
    800008ae:	ec02                	sd	zero,24(sp)
    800008b0:	040109a3          	sb	zero,83(sp)
    800008b4:	d482                	sw	zero,104(sp)
    800008b6:	0004c583          	lbu	a1,0(s1)
    800008ba:	4615                	li	a2,5
    800008bc:	855a                	mv	a0,s6
    800008be:	564000ef          	jal	ra,80000e22 <memchr>
    800008c2:	47c2                	lw	a5,16(sp)
    800008c4:	00148413          	addi	s0,s1,1
    800008c8:	e921                	bnez	a0,80000918 <_svfiprintf_r+0x13c>
    800008ca:	0107f713          	andi	a4,a5,16
    800008ce:	c709                	beqz	a4,800008d8 <_svfiprintf_r+0xfc>
    800008d0:	02000713          	li	a4,32
    800008d4:	04e109a3          	sb	a4,83(sp)
    800008d8:	0087f713          	andi	a4,a5,8
    800008dc:	c709                	beqz	a4,800008e6 <_svfiprintf_r+0x10a>
    800008de:	02b00713          	li	a4,43
    800008e2:	04e109a3          	sb	a4,83(sp)
    800008e6:	0004c683          	lbu	a3,0(s1)
    800008ea:	02a00713          	li	a4,42
    800008ee:	02e68d63          	beq	a3,a4,80000928 <_svfiprintf_r+0x14c>
    800008f2:	47f2                	lw	a5,28(sp)
    800008f4:	8426                	mv	s0,s1
    800008f6:	4681                	li	a3,0
    800008f8:	4625                	li	a2,9
    800008fa:	4829                	li	a6,10
    800008fc:	00044703          	lbu	a4,0(s0)
    80000900:	00140513          	addi	a0,s0,1
    80000904:	fd07059b          	addiw	a1,a4,-48
    80000908:	872e                	mv	a4,a1
    8000090a:	06b67663          	bgeu	a2,a1,80000976 <_svfiprintf_r+0x19a>
    8000090e:	c68d                	beqz	a3,80000938 <_svfiprintf_r+0x15c>
    80000910:	ce3e                	sw	a5,28(sp)
    80000912:	a01d                	j	80000938 <_svfiprintf_r+0x15c>
    80000914:	0405                	addi	s0,s0,1
    80000916:	b785                	j	80000876 <_svfiprintf_r+0x9a>
    80000918:	41650533          	sub	a0,a0,s6
    8000091c:	00ac953b          	sllw	a0,s9,a0
    80000920:	8fc9                	or	a5,a5,a0
    80000922:	c83e                	sw	a5,16(sp)
    80000924:	84a2                	mv	s1,s0
    80000926:	bf41                	j	800008b6 <_svfiprintf_r+0xda>
    80000928:	6722                	ld	a4,8(sp)
    8000092a:	00870693          	addi	a3,a4,8
    8000092e:	4318                	lw	a4,0(a4)
    80000930:	e436                	sd	a3,8(sp)
    80000932:	02074b63          	bltz	a4,80000968 <_svfiprintf_r+0x18c>
    80000936:	ce3a                	sw	a4,28(sp)
    80000938:	00044703          	lbu	a4,0(s0)
    8000093c:	02e00793          	li	a5,46
    80000940:	06f71163          	bne	a4,a5,800009a2 <_svfiprintf_r+0x1c6>
    80000944:	00144703          	lbu	a4,1(s0)
    80000948:	02a00793          	li	a5,42
    8000094c:	02f71b63          	bne	a4,a5,80000982 <_svfiprintf_r+0x1a6>
    80000950:	67a2                	ld	a5,8(sp)
    80000952:	0409                	addi	s0,s0,2
    80000954:	00878713          	addi	a4,a5,8
    80000958:	e43a                	sd	a4,8(sp)
    8000095a:	4398                	lw	a4,0(a5)
    8000095c:	87ba                	mv	a5,a4
    8000095e:	00075363          	bgez	a4,80000964 <_svfiprintf_r+0x188>
    80000962:	57fd                	li	a5,-1
    80000964:	ca3e                	sw	a5,20(sp)
    80000966:	a835                	j	800009a2 <_svfiprintf_r+0x1c6>
    80000968:	40e0073b          	negw	a4,a4
    8000096c:	0027e793          	ori	a5,a5,2
    80000970:	ce3a                	sw	a4,28(sp)
    80000972:	c83e                	sw	a5,16(sp)
    80000974:	b7d1                	j	80000938 <_svfiprintf_r+0x15c>
    80000976:	02f807bb          	mulw	a5,a6,a5
    8000097a:	842a                	mv	s0,a0
    8000097c:	4685                	li	a3,1
    8000097e:	9fb9                	addw	a5,a5,a4
    80000980:	bfb5                	j	800008fc <_svfiprintf_r+0x120>
    80000982:	0405                	addi	s0,s0,1
    80000984:	ca02                	sw	zero,20(sp)
    80000986:	4681                	li	a3,0
    80000988:	4781                	li	a5,0
    8000098a:	4625                	li	a2,9
    8000098c:	4829                	li	a6,10
    8000098e:	00044703          	lbu	a4,0(s0)
    80000992:	00140513          	addi	a0,s0,1
    80000996:	fd07059b          	addiw	a1,a4,-48
    8000099a:	872e                	mv	a4,a1
    8000099c:	06b67c63          	bgeu	a2,a1,80000a14 <_svfiprintf_r+0x238>
    800009a0:	f2f1                	bnez	a3,80000964 <_svfiprintf_r+0x188>
    800009a2:	00044583          	lbu	a1,0(s0)
    800009a6:	460d                	li	a2,3
    800009a8:	00001517          	auipc	a0,0x1
    800009ac:	97850513          	addi	a0,a0,-1672 # 80001320 <__errno+0xcc>
    800009b0:	472000ef          	jal	ra,80000e22 <memchr>
    800009b4:	cd11                	beqz	a0,800009d0 <_svfiprintf_r+0x1f4>
    800009b6:	00001797          	auipc	a5,0x1
    800009ba:	96a78793          	addi	a5,a5,-1686 # 80001320 <__errno+0xcc>
    800009be:	8d1d                	sub	a0,a0,a5
    800009c0:	47c2                	lw	a5,16(sp)
    800009c2:	04000713          	li	a4,64
    800009c6:	00a7173b          	sllw	a4,a4,a0
    800009ca:	8fd9                	or	a5,a5,a4
    800009cc:	0405                	addi	s0,s0,1
    800009ce:	c83e                	sw	a5,16(sp)
    800009d0:	00044583          	lbu	a1,0(s0)
    800009d4:	4619                	li	a2,6
    800009d6:	00001517          	auipc	a0,0x1
    800009da:	95250513          	addi	a0,a0,-1710 # 80001328 <__errno+0xd4>
    800009de:	00140493          	addi	s1,s0,1
    800009e2:	02b10423          	sb	a1,40(sp)
    800009e6:	43c000ef          	jal	ra,80000e22 <memchr>
    800009ea:	c135                	beqz	a0,80000a4e <_svfiprintf_r+0x272>
    800009ec:	00000793          	li	a5,0
    800009f0:	eb85                	bnez	a5,80000a20 <_svfiprintf_r+0x244>
    800009f2:	4742                	lw	a4,16(sp)
    800009f4:	67a2                	ld	a5,8(sp)
    800009f6:	10077713          	andi	a4,a4,256
    800009fa:	00878693          	addi	a3,a5,8
    800009fe:	c709                	beqz	a4,80000a08 <_svfiprintf_r+0x22c>
    80000a00:	07bd                	addi	a5,a5,15
    80000a02:	9bc1                	andi	a5,a5,-16
    80000a04:	01078693          	addi	a3,a5,16
    80000a08:	e436                	sd	a3,8(sp)
    80000a0a:	5792                	lw	a5,36(sp)
    80000a0c:	013787bb          	addw	a5,a5,s3
    80000a10:	d23e                	sw	a5,36(sp)
    80000a12:	b58d                	j	80000874 <_svfiprintf_r+0x98>
    80000a14:	02f807bb          	mulw	a5,a6,a5
    80000a18:	842a                	mv	s0,a0
    80000a1a:	4685                	li	a3,1
    80000a1c:	9fb9                	addw	a5,a5,a4
    80000a1e:	bf85                	j	8000098e <_svfiprintf_r+0x1b2>
    80000a20:	0038                	addi	a4,sp,8
    80000a22:	00000697          	auipc	a3,0x0
    80000a26:	b8a68693          	addi	a3,a3,-1142 # 800005ac <__ssputs_r>
    80000a2a:	864a                	mv	a2,s2
    80000a2c:	080c                	addi	a1,sp,16
    80000a2e:	8552                	mv	a0,s4
    80000a30:	00000097          	auipc	ra,0x0
    80000a34:	000000e7          	jalr	zero # 0 <_start-0x80000000>
    80000a38:	89aa                	mv	s3,a0
    80000a3a:	fd5518e3          	bne	a0,s5,80000a0a <_svfiprintf_r+0x22e>
    80000a3e:	01095783          	lhu	a5,16(s2)
    80000a42:	0407f793          	andi	a5,a5,64
    80000a46:	de0790e3          	bnez	a5,80000826 <_svfiprintf_r+0x4a>
    80000a4a:	5512                	lw	a0,36(sp)
    80000a4c:	bbf1                	j	80000828 <_svfiprintf_r+0x4c>
    80000a4e:	0038                	addi	a4,sp,8
    80000a50:	00000697          	auipc	a3,0x0
    80000a54:	b5c68693          	addi	a3,a3,-1188 # 800005ac <__ssputs_r>
    80000a58:	864a                	mv	a2,s2
    80000a5a:	080c                	addi	a1,sp,16
    80000a5c:	8552                	mv	a0,s4
    80000a5e:	124000ef          	jal	ra,80000b82 <_printf_i>
    80000a62:	bfd9                	j	80000a38 <_svfiprintf_r+0x25c>

Disassembly of section .text._printf_common:

0000000080000a64 <_printf_common>:
    80000a64:	715d                	addi	sp,sp,-80
    80000a66:	f052                	sd	s4,32(sp)
    80000a68:	ec56                	sd	s5,24(sp)
    80000a6a:	8a36                	mv	s4,a3
    80000a6c:	8aba                	mv	s5,a4
    80000a6e:	4994                	lw	a3,16(a1)
    80000a70:	4598                	lw	a4,8(a1)
    80000a72:	e0a2                	sd	s0,64(sp)
    80000a74:	f84a                	sd	s2,48(sp)
    80000a76:	f44e                	sd	s3,40(sp)
    80000a78:	e486                	sd	ra,72(sp)
    80000a7a:	fc26                	sd	s1,56(sp)
    80000a7c:	e85a                	sd	s6,16(sp)
    80000a7e:	e45e                	sd	s7,8(sp)
    80000a80:	89aa                	mv	s3,a0
    80000a82:	842e                	mv	s0,a1
    80000a84:	8932                	mv	s2,a2
    80000a86:	87ba                	mv	a5,a4
    80000a88:	00e6c363          	blt	a3,a4,80000a8e <_printf_common+0x2a>
    80000a8c:	87b6                	mv	a5,a3
    80000a8e:	00f92023          	sw	a5,0(s2)
    80000a92:	04344703          	lbu	a4,67(s0)
    80000a96:	c701                	beqz	a4,80000a9e <_printf_common+0x3a>
    80000a98:	2785                	addiw	a5,a5,1
    80000a9a:	00f92023          	sw	a5,0(s2)
    80000a9e:	401c                	lw	a5,0(s0)
    80000aa0:	0207f793          	andi	a5,a5,32
    80000aa4:	c791                	beqz	a5,80000ab0 <_printf_common+0x4c>
    80000aa6:	00092783          	lw	a5,0(s2)
    80000aaa:	2789                	addiw	a5,a5,2
    80000aac:	00f92023          	sw	a5,0(s2)
    80000ab0:	4004                	lw	s1,0(s0)
    80000ab2:	8899                	andi	s1,s1,6
    80000ab4:	e891                	bnez	s1,80000ac8 <_printf_common+0x64>
    80000ab6:	01940b13          	addi	s6,s0,25
    80000aba:	5bfd                	li	s7,-1
    80000abc:	445c                	lw	a5,12(s0)
    80000abe:	00092703          	lw	a4,0(s2)
    80000ac2:	9f99                	subw	a5,a5,a4
    80000ac4:	06f4c063          	blt	s1,a5,80000b24 <_printf_common+0xc0>
    80000ac8:	04344783          	lbu	a5,67(s0)
    80000acc:	00f03633          	snez	a2,a5
    80000ad0:	00f036b3          	snez	a3,a5
    80000ad4:	401c                	lw	a5,0(s0)
    80000ad6:	0207f793          	andi	a5,a5,32
    80000ada:	ebb5                	bnez	a5,80000b4e <_printf_common+0xea>
    80000adc:	04340613          	addi	a2,s0,67
    80000ae0:	85d2                	mv	a1,s4
    80000ae2:	854e                	mv	a0,s3
    80000ae4:	9a82                	jalr	s5
    80000ae6:	57fd                	li	a5,-1
    80000ae8:	04f50563          	beq	a0,a5,80000b32 <_printf_common+0xce>
    80000aec:	401c                	lw	a5,0(s0)
    80000aee:	4711                	li	a4,4
    80000af0:	4481                	li	s1,0
    80000af2:	8b99                	andi	a5,a5,6
    80000af4:	00e79b63          	bne	a5,a4,80000b0a <_printf_common+0xa6>
    80000af8:	4444                	lw	s1,12(s0)
    80000afa:	00092783          	lw	a5,0(s2)
    80000afe:	40f487bb          	subw	a5,s1,a5
    80000b02:	84be                	mv	s1,a5
    80000b04:	0007d363          	bgez	a5,80000b0a <_printf_common+0xa6>
    80000b08:	4481                	li	s1,0
    80000b0a:	441c                	lw	a5,8(s0)
    80000b0c:	4818                	lw	a4,16(s0)
    80000b0e:	00f75463          	bge	a4,a5,80000b16 <_printf_common+0xb2>
    80000b12:	9f99                	subw	a5,a5,a4
    80000b14:	9cbd                	addw	s1,s1,a5
    80000b16:	4901                	li	s2,0
    80000b18:	0469                	addi	s0,s0,26
    80000b1a:	5b7d                	li	s6,-1
    80000b1c:	05249a63          	bne	s1,s2,80000b70 <_printf_common+0x10c>
    80000b20:	4501                	li	a0,0
    80000b22:	a809                	j	80000b34 <_printf_common+0xd0>
    80000b24:	4685                	li	a3,1
    80000b26:	865a                	mv	a2,s6
    80000b28:	85d2                	mv	a1,s4
    80000b2a:	854e                	mv	a0,s3
    80000b2c:	9a82                	jalr	s5
    80000b2e:	01751e63          	bne	a0,s7,80000b4a <_printf_common+0xe6>
    80000b32:	557d                	li	a0,-1
    80000b34:	60a6                	ld	ra,72(sp)
    80000b36:	6406                	ld	s0,64(sp)
    80000b38:	74e2                	ld	s1,56(sp)
    80000b3a:	7942                	ld	s2,48(sp)
    80000b3c:	79a2                	ld	s3,40(sp)
    80000b3e:	7a02                	ld	s4,32(sp)
    80000b40:	6ae2                	ld	s5,24(sp)
    80000b42:	6b42                	ld	s6,16(sp)
    80000b44:	6ba2                	ld	s7,8(sp)
    80000b46:	6161                	addi	sp,sp,80
    80000b48:	8082                	ret
    80000b4a:	2485                	addiw	s1,s1,1
    80000b4c:	bf85                	j	80000abc <_printf_common+0x58>
    80000b4e:	00d407b3          	add	a5,s0,a3
    80000b52:	03000693          	li	a3,48
    80000b56:	04d781a3          	sb	a3,67(a5)
    80000b5a:	0016071b          	addiw	a4,a2,1
    80000b5e:	0026069b          	addiw	a3,a2,2
    80000b62:	04544603          	lbu	a2,69(s0)
    80000b66:	00e407b3          	add	a5,s0,a4
    80000b6a:	04c781a3          	sb	a2,67(a5)
    80000b6e:	b7bd                	j	80000adc <_printf_common+0x78>
    80000b70:	4685                	li	a3,1
    80000b72:	8622                	mv	a2,s0
    80000b74:	85d2                	mv	a1,s4
    80000b76:	854e                	mv	a0,s3
    80000b78:	9a82                	jalr	s5
    80000b7a:	fb650ce3          	beq	a0,s6,80000b32 <_printf_common+0xce>
    80000b7e:	2905                	addiw	s2,s2,1
    80000b80:	bf71                	j	80000b1c <_printf_common+0xb8>

Disassembly of section .text._printf_i:

0000000080000b82 <_printf_i>:
    80000b82:	715d                	addi	sp,sp,-80
    80000b84:	e0a2                	sd	s0,64(sp)
    80000b86:	f84a                	sd	s2,48(sp)
    80000b88:	f44e                	sd	s3,40(sp)
    80000b8a:	f052                	sd	s4,32(sp)
    80000b8c:	e486                	sd	ra,72(sp)
    80000b8e:	fc26                	sd	s1,56(sp)
    80000b90:	ec56                	sd	s5,24(sp)
    80000b92:	e85a                	sd	s6,16(sp)
    80000b94:	0185c803          	lbu	a6,24(a1)
    80000b98:	07800793          	li	a5,120
    80000b9c:	892a                	mv	s2,a0
    80000b9e:	842e                	mv	s0,a1
    80000ba0:	89b2                	mv	s3,a2
    80000ba2:	8a36                	mv	s4,a3
    80000ba4:	0307e263          	bltu	a5,a6,80000bc8 <_printf_i+0x46>
    80000ba8:	06200793          	li	a5,98
    80000bac:	04358693          	addi	a3,a1,67
    80000bb0:	0307e163          	bltu	a5,a6,80000bd2 <_printf_i+0x50>
    80000bb4:	1e080163          	beqz	a6,80000d96 <_printf_i+0x214>
    80000bb8:	05800793          	li	a5,88
    80000bbc:	00000617          	auipc	a2,0x0
    80000bc0:	77460613          	addi	a2,a2,1908 # 80001330 <__errno+0xdc>
    80000bc4:	16f80063          	beq	a6,a5,80000d24 <_printf_i+0x1a2>
    80000bc8:	04240493          	addi	s1,s0,66
    80000bcc:	05040123          	sb	a6,66(s0)
    80000bd0:	a815                	j	80000c04 <_printf_i+0x82>
    80000bd2:	f9d8079b          	addiw	a5,a6,-99
    80000bd6:	0ff7f793          	zext.b	a5,a5
    80000bda:	4655                	li	a2,21
    80000bdc:	fef666e3          	bltu	a2,a5,80000bc8 <_printf_i+0x46>
    80000be0:	00000617          	auipc	a2,0x0
    80000be4:	77c60613          	addi	a2,a2,1916 # 8000135c <__errno+0x108>
    80000be8:	078a                	slli	a5,a5,0x2
    80000bea:	97b2                	add	a5,a5,a2
    80000bec:	439c                	lw	a5,0(a5)
    80000bee:	97b2                	add	a5,a5,a2
    80000bf0:	8782                	jr	a5
    80000bf2:	631c                	ld	a5,0(a4)
    80000bf4:	04258493          	addi	s1,a1,66
    80000bf8:	00878693          	addi	a3,a5,8
    80000bfc:	439c                	lw	a5,0(a5)
    80000bfe:	e314                	sd	a3,0(a4)
    80000c00:	04f58123          	sb	a5,66(a1)
    80000c04:	4785                	li	a5,1
    80000c06:	a2e1                	j	80000dce <_printf_i+0x24c>
    80000c08:	4190                	lw	a2,0(a1)
    80000c0a:	631c                	ld	a5,0(a4)
    80000c0c:	08067513          	andi	a0,a2,128
    80000c10:	00878593          	addi	a1,a5,8
    80000c14:	c139                	beqz	a0,80000c5a <_printf_i+0xd8>
    80000c16:	639c                	ld	a5,0(a5)
    80000c18:	e30c                	sd	a1,0(a4)
    80000c1a:	4058                	lw	a4,4(s0)
    80000c1c:	1407db63          	bgez	a5,80000d72 <_printf_i+0x1f0>
    80000c20:	02d00593          	li	a1,45
    80000c24:	04b401a3          	sb	a1,67(s0)
    80000c28:	c418                	sw	a4,8(s0)
    80000c2a:	04075263          	bgez	a4,80000c6e <_printf_i+0xec>
    80000c2e:	40f007b3          	neg	a5,a5
    80000c32:	00000617          	auipc	a2,0x0
    80000c36:	6fe60613          	addi	a2,a2,1790 # 80001330 <__errno+0xdc>
    80000c3a:	4829                	li	a6,10
    80000c3c:	84b6                	mv	s1,a3
    80000c3e:	0307f733          	remu	a4,a5,a6
    80000c42:	14fd                	addi	s1,s1,-1
    80000c44:	9732                	add	a4,a4,a2
    80000c46:	00074703          	lbu	a4,0(a4)
    80000c4a:	00e48023          	sb	a4,0(s1)
    80000c4e:	873e                	mv	a4,a5
    80000c50:	0307d7b3          	divu	a5,a5,a6
    80000c54:	ff0775e3          	bgeu	a4,a6,80000c3e <_printf_i+0xbc>
    80000c58:	a8a1                	j	80000cb0 <_printf_i+0x12e>
    80000c5a:	439c                	lw	a5,0(a5)
    80000c5c:	04067513          	andi	a0,a2,64
    80000c60:	e30c                	sd	a1,0(a4)
    80000c62:	dd45                	beqz	a0,80000c1a <_printf_i+0x98>
    80000c64:	0107979b          	slliw	a5,a5,0x10
    80000c68:	4107d79b          	sraiw	a5,a5,0x10
    80000c6c:	b77d                	j	80000c1a <_printf_i+0x98>
    80000c6e:	9a6d                	andi	a2,a2,-5
    80000c70:	c010                	sw	a2,0(s0)
    80000c72:	bf75                	j	80000c2e <_printf_i+0xac>
    80000c74:	4190                	lw	a2,0(a1)
    80000c76:	631c                	ld	a5,0(a4)
    80000c78:	08067513          	andi	a0,a2,128
    80000c7c:	00878593          	addi	a1,a5,8
    80000c80:	cd35                	beqz	a0,80000cfc <_printf_i+0x17a>
    80000c82:	639c                	ld	a5,0(a5)
    80000c84:	e30c                	sd	a1,0(a4)
    80000c86:	06f00713          	li	a4,111
    80000c8a:	00000617          	auipc	a2,0x0
    80000c8e:	6a660613          	addi	a2,a2,1702 # 80001330 <__errno+0xdc>
    80000c92:	0ce81e63          	bne	a6,a4,80000d6e <_printf_i+0x1ec>
    80000c96:	4821                	li	a6,8
    80000c98:	040401a3          	sb	zero,67(s0)
    80000c9c:	4058                	lw	a4,4(s0)
    80000c9e:	c418                	sw	a4,8(s0)
    80000ca0:	f8074ee3          	bltz	a4,80000c3c <_printf_i+0xba>
    80000ca4:	400c                	lw	a1,0(s0)
    80000ca6:	99ed                	andi	a1,a1,-5
    80000ca8:	c00c                	sw	a1,0(s0)
    80000caa:	fbc9                	bnez	a5,80000c3c <_printf_i+0xba>
    80000cac:	84b6                	mv	s1,a3
    80000cae:	f759                	bnez	a4,80000c3c <_printf_i+0xba>
    80000cb0:	47a1                	li	a5,8
    80000cb2:	00f81e63          	bne	a6,a5,80000cce <_printf_i+0x14c>
    80000cb6:	401c                	lw	a5,0(s0)
    80000cb8:	8b85                	andi	a5,a5,1
    80000cba:	cb91                	beqz	a5,80000cce <_printf_i+0x14c>
    80000cbc:	4058                	lw	a4,4(s0)
    80000cbe:	481c                	lw	a5,16(s0)
    80000cc0:	00e7c763          	blt	a5,a4,80000cce <_printf_i+0x14c>
    80000cc4:	03000793          	li	a5,48
    80000cc8:	fef48fa3          	sb	a5,-1(s1)
    80000ccc:	14fd                	addi	s1,s1,-1
    80000cce:	8e85                	sub	a3,a3,s1
    80000cd0:	c814                	sw	a3,16(s0)
    80000cd2:	8752                	mv	a4,s4
    80000cd4:	86ce                	mv	a3,s3
    80000cd6:	0070                	addi	a2,sp,12
    80000cd8:	85a2                	mv	a1,s0
    80000cda:	854a                	mv	a0,s2
    80000cdc:	d89ff0ef          	jal	ra,80000a64 <_printf_common>
    80000ce0:	5afd                	li	s5,-1
    80000ce2:	0f551a63          	bne	a0,s5,80000dd6 <_printf_i+0x254>
    80000ce6:	557d                	li	a0,-1
    80000ce8:	60a6                	ld	ra,72(sp)
    80000cea:	6406                	ld	s0,64(sp)
    80000cec:	74e2                	ld	s1,56(sp)
    80000cee:	7942                	ld	s2,48(sp)
    80000cf0:	79a2                	ld	s3,40(sp)
    80000cf2:	7a02                	ld	s4,32(sp)
    80000cf4:	6ae2                	ld	s5,24(sp)
    80000cf6:	6b42                	ld	s6,16(sp)
    80000cf8:	6161                	addi	sp,sp,80
    80000cfa:	8082                	ret
    80000cfc:	04067613          	andi	a2,a2,64
    80000d00:	e30c                	sd	a1,0(a4)
    80000d02:	c601                	beqz	a2,80000d0a <_printf_i+0x188>
    80000d04:	0007d783          	lhu	a5,0(a5)
    80000d08:	bfbd                	j	80000c86 <_printf_i+0x104>
    80000d0a:	0007e783          	lwu	a5,0(a5)
    80000d0e:	bfa5                	j	80000c86 <_printf_i+0x104>
    80000d10:	419c                	lw	a5,0(a1)
    80000d12:	0a07e793          	ori	a5,a5,160
    80000d16:	c19c                	sw	a5,0(a1)
    80000d18:	07800813          	li	a6,120
    80000d1c:	00000617          	auipc	a2,0x0
    80000d20:	62c60613          	addi	a2,a2,1580 # 80001348 <__errno+0xf4>
    80000d24:	050402a3          	sb	a6,69(s0)
    80000d28:	400c                	lw	a1,0(s0)
    80000d2a:	631c                	ld	a5,0(a4)
    80000d2c:	0805f813          	andi	a6,a1,128
    80000d30:	00878513          	addi	a0,a5,8
    80000d34:	00080d63          	beqz	a6,80000d4e <_printf_i+0x1cc>
    80000d38:	639c                	ld	a5,0(a5)
    80000d3a:	e308                	sd	a0,0(a4)
    80000d3c:	0015f713          	andi	a4,a1,1
    80000d40:	c701                	beqz	a4,80000d48 <_printf_i+0x1c6>
    80000d42:	0205e593          	ori	a1,a1,32
    80000d46:	c00c                	sw	a1,0(s0)
    80000d48:	cf91                	beqz	a5,80000d64 <_printf_i+0x1e2>
    80000d4a:	4841                	li	a6,16
    80000d4c:	b7b1                	j	80000c98 <_printf_i+0x116>
    80000d4e:	0405f813          	andi	a6,a1,64
    80000d52:	e308                	sd	a0,0(a4)
    80000d54:	00080563          	beqz	a6,80000d5e <_printf_i+0x1dc>
    80000d58:	0007d783          	lhu	a5,0(a5)
    80000d5c:	b7c5                	j	80000d3c <_printf_i+0x1ba>
    80000d5e:	0007e783          	lwu	a5,0(a5)
    80000d62:	bfe9                	j	80000d3c <_printf_i+0x1ba>
    80000d64:	4018                	lw	a4,0(s0)
    80000d66:	fdf77713          	andi	a4,a4,-33
    80000d6a:	c018                	sw	a4,0(s0)
    80000d6c:	bff9                	j	80000d4a <_printf_i+0x1c8>
    80000d6e:	4829                	li	a6,10
    80000d70:	b725                	j	80000c98 <_printf_i+0x116>
    80000d72:	00000617          	auipc	a2,0x0
    80000d76:	5be60613          	addi	a2,a2,1470 # 80001330 <__errno+0xdc>
    80000d7a:	4829                	li	a6,10
    80000d7c:	b705                	j	80000c9c <_printf_i+0x11a>
    80000d7e:	4190                	lw	a2,0(a1)
    80000d80:	631c                	ld	a5,0(a4)
    80000d82:	49cc                	lw	a1,20(a1)
    80000d84:	08067813          	andi	a6,a2,128
    80000d88:	00878513          	addi	a0,a5,8
    80000d8c:	00080963          	beqz	a6,80000d9e <_printf_i+0x21c>
    80000d90:	e308                	sd	a0,0(a4)
    80000d92:	639c                	ld	a5,0(a5)
    80000d94:	e38c                	sd	a1,0(a5)
    80000d96:	00042823          	sw	zero,16(s0)
    80000d9a:	84b6                	mv	s1,a3
    80000d9c:	bf1d                	j	80000cd2 <_printf_i+0x150>
    80000d9e:	e308                	sd	a0,0(a4)
    80000da0:	04067613          	andi	a2,a2,64
    80000da4:	639c                	ld	a5,0(a5)
    80000da6:	c601                	beqz	a2,80000dae <_printf_i+0x22c>
    80000da8:	00b79023          	sh	a1,0(a5)
    80000dac:	b7ed                	j	80000d96 <_printf_i+0x214>
    80000dae:	c38c                	sw	a1,0(a5)
    80000db0:	b7dd                	j	80000d96 <_printf_i+0x214>
    80000db2:	631c                	ld	a5,0(a4)
    80000db4:	41d0                	lw	a2,4(a1)
    80000db6:	4581                	li	a1,0
    80000db8:	00878693          	addi	a3,a5,8
    80000dbc:	e314                	sd	a3,0(a4)
    80000dbe:	6384                	ld	s1,0(a5)
    80000dc0:	8526                	mv	a0,s1
    80000dc2:	060000ef          	jal	ra,80000e22 <memchr>
    80000dc6:	c119                	beqz	a0,80000dcc <_printf_i+0x24a>
    80000dc8:	8d05                	sub	a0,a0,s1
    80000dca:	c048                	sw	a0,4(s0)
    80000dcc:	405c                	lw	a5,4(s0)
    80000dce:	c81c                	sw	a5,16(s0)
    80000dd0:	040401a3          	sb	zero,67(s0)
    80000dd4:	bdfd                	j	80000cd2 <_printf_i+0x150>
    80000dd6:	4814                	lw	a3,16(s0)
    80000dd8:	8626                	mv	a2,s1
    80000dda:	85ce                	mv	a1,s3
    80000ddc:	854a                	mv	a0,s2
    80000dde:	9a02                	jalr	s4
    80000de0:	f15503e3          	beq	a0,s5,80000ce6 <_printf_i+0x164>
    80000de4:	401c                	lw	a5,0(s0)
    80000de6:	8b89                	andi	a5,a5,2
    80000de8:	eb85                	bnez	a5,80000e18 <_printf_i+0x296>
    80000dea:	4458                	lw	a4,12(s0)
    80000dec:	47b2                	lw	a5,12(sp)
    80000dee:	0007051b          	sext.w	a0,a4
    80000df2:	eef75be3          	bge	a4,a5,80000ce8 <_printf_i+0x166>
    80000df6:	0007851b          	sext.w	a0,a5
    80000dfa:	b5fd                	j	80000ce8 <_printf_i+0x166>
    80000dfc:	4685                	li	a3,1
    80000dfe:	8656                	mv	a2,s5
    80000e00:	85ce                	mv	a1,s3
    80000e02:	854a                	mv	a0,s2
    80000e04:	9a02                	jalr	s4
    80000e06:	ef6500e3          	beq	a0,s6,80000ce6 <_printf_i+0x164>
    80000e0a:	2485                	addiw	s1,s1,1
    80000e0c:	445c                	lw	a5,12(s0)
    80000e0e:	4732                	lw	a4,12(sp)
    80000e10:	9f99                	subw	a5,a5,a4
    80000e12:	fef4c5e3          	blt	s1,a5,80000dfc <_printf_i+0x27a>
    80000e16:	bfd1                	j	80000dea <_printf_i+0x268>
    80000e18:	4481                	li	s1,0
    80000e1a:	01940a93          	addi	s5,s0,25
    80000e1e:	5b7d                	li	s6,-1
    80000e20:	b7f5                	j	80000e0c <_printf_i+0x28a>

Disassembly of section .text.memchr:

0000000080000e22 <memchr>:
    80000e22:	0ff5f593          	zext.b	a1,a1
    80000e26:	962a                	add	a2,a2,a0
    80000e28:	00c51463          	bne	a0,a2,80000e30 <memchr+0xe>
    80000e2c:	4501                	li	a0,0
    80000e2e:	8082                	ret
    80000e30:	00054783          	lbu	a5,0(a0)
    80000e34:	feb78de3          	beq	a5,a1,80000e2e <memchr+0xc>
    80000e38:	0505                	addi	a0,a0,1
    80000e3a:	b7fd                	j	80000e28 <memchr+0x6>

Disassembly of section .text._free_r:

0000000080000e3c <_free_r>:
    80000e3c:	cdd9                	beqz	a1,80000eda <_free_r+0x9e>
    80000e3e:	ff85b783          	ld	a5,-8(a1)
    80000e42:	1101                	addi	sp,sp,-32
    80000e44:	e822                	sd	s0,16(sp)
    80000e46:	ec06                	sd	ra,24(sp)
    80000e48:	ff858413          	addi	s0,a1,-8
    80000e4c:	0007d363          	bgez	a5,80000e52 <_free_r+0x16>
    80000e50:	943e                	add	s0,s0,a5
    80000e52:	e42a                	sd	a0,8(sp)
    80000e54:	2a4000ef          	jal	ra,800010f8 <__malloc_lock>
    80000e58:	84818713          	addi	a4,gp,-1976 # 800014b0 <__malloc_free_list>
    80000e5c:	631c                	ld	a5,0(a4)
    80000e5e:	6522                	ld	a0,8(sp)
    80000e60:	eb81                	bnez	a5,80000e70 <_free_r+0x34>
    80000e62:	00043423          	sd	zero,8(s0)
    80000e66:	e300                	sd	s0,0(a4)
    80000e68:	6442                	ld	s0,16(sp)
    80000e6a:	60e2                	ld	ra,24(sp)
    80000e6c:	6105                	addi	sp,sp,32
    80000e6e:	a471                	j	800010fa <__malloc_unlock>
    80000e70:	00f47d63          	bgeu	s0,a5,80000e8a <_free_r+0x4e>
    80000e74:	6010                	ld	a2,0(s0)
    80000e76:	00c406b3          	add	a3,s0,a2
    80000e7a:	00d79663          	bne	a5,a3,80000e86 <_free_r+0x4a>
    80000e7e:	6394                	ld	a3,0(a5)
    80000e80:	679c                	ld	a5,8(a5)
    80000e82:	96b2                	add	a3,a3,a2
    80000e84:	e014                	sd	a3,0(s0)
    80000e86:	e41c                	sd	a5,8(s0)
    80000e88:	bff9                	j	80000e66 <_free_r+0x2a>
    80000e8a:	873e                	mv	a4,a5
    80000e8c:	679c                	ld	a5,8(a5)
    80000e8e:	c399                	beqz	a5,80000e94 <_free_r+0x58>
    80000e90:	fef47de3          	bgeu	s0,a5,80000e8a <_free_r+0x4e>
    80000e94:	6314                	ld	a3,0(a4)
    80000e96:	00d70633          	add	a2,a4,a3
    80000e9a:	00861f63          	bne	a2,s0,80000eb8 <_free_r+0x7c>
    80000e9e:	6010                	ld	a2,0(s0)
    80000ea0:	96b2                	add	a3,a3,a2
    80000ea2:	e314                	sd	a3,0(a4)
    80000ea4:	00d70633          	add	a2,a4,a3
    80000ea8:	fcc790e3          	bne	a5,a2,80000e68 <_free_r+0x2c>
    80000eac:	6390                	ld	a2,0(a5)
    80000eae:	679c                	ld	a5,8(a5)
    80000eb0:	96b2                	add	a3,a3,a2
    80000eb2:	e314                	sd	a3,0(a4)
    80000eb4:	e71c                	sd	a5,8(a4)
    80000eb6:	bf4d                	j	80000e68 <_free_r+0x2c>
    80000eb8:	00c47563          	bgeu	s0,a2,80000ec2 <_free_r+0x86>
    80000ebc:	47b1                	li	a5,12
    80000ebe:	c11c                	sw	a5,0(a0)
    80000ec0:	b765                	j	80000e68 <_free_r+0x2c>
    80000ec2:	6010                	ld	a2,0(s0)
    80000ec4:	00c406b3          	add	a3,s0,a2
    80000ec8:	00d79663          	bne	a5,a3,80000ed4 <_free_r+0x98>
    80000ecc:	6394                	ld	a3,0(a5)
    80000ece:	679c                	ld	a5,8(a5)
    80000ed0:	96b2                	add	a3,a3,a2
    80000ed2:	e014                	sd	a3,0(s0)
    80000ed4:	e41c                	sd	a5,8(s0)
    80000ed6:	e700                	sd	s0,8(a4)
    80000ed8:	bf41                	j	80000e68 <_free_r+0x2c>
    80000eda:	8082                	ret

Disassembly of section .text.sbrk_aligned:

0000000080000edc <sbrk_aligned>:
    80000edc:	1101                	addi	sp,sp,-32
    80000ede:	e04a                	sd	s2,0(sp)
    80000ee0:	84018913          	addi	s2,gp,-1984 # 800014a8 <__malloc_sbrk_start>
    80000ee4:	00093783          	ld	a5,0(s2)
    80000ee8:	e822                	sd	s0,16(sp)
    80000eea:	e426                	sd	s1,8(sp)
    80000eec:	ec06                	sd	ra,24(sp)
    80000eee:	84aa                	mv	s1,a0
    80000ef0:	842e                	mv	s0,a1
    80000ef2:	e791                	bnez	a5,80000efe <sbrk_aligned+0x22>
    80000ef4:	4581                	li	a1,0
    80000ef6:	1da000ef          	jal	ra,800010d0 <_sbrk_r>
    80000efa:	00a93023          	sd	a0,0(s2)
    80000efe:	85a2                	mv	a1,s0
    80000f00:	8526                	mv	a0,s1
    80000f02:	1ce000ef          	jal	ra,800010d0 <_sbrk_r>
    80000f06:	597d                	li	s2,-1
    80000f08:	01251a63          	bne	a0,s2,80000f1c <sbrk_aligned+0x40>
    80000f0c:	547d                	li	s0,-1
    80000f0e:	60e2                	ld	ra,24(sp)
    80000f10:	8522                	mv	a0,s0
    80000f12:	6442                	ld	s0,16(sp)
    80000f14:	64a2                	ld	s1,8(sp)
    80000f16:	6902                	ld	s2,0(sp)
    80000f18:	6105                	addi	sp,sp,32
    80000f1a:	8082                	ret
    80000f1c:	00750413          	addi	s0,a0,7
    80000f20:	9861                	andi	s0,s0,-8
    80000f22:	fe8506e3          	beq	a0,s0,80000f0e <sbrk_aligned+0x32>
    80000f26:	40a405b3          	sub	a1,s0,a0
    80000f2a:	8526                	mv	a0,s1
    80000f2c:	1a4000ef          	jal	ra,800010d0 <_sbrk_r>
    80000f30:	fd251fe3          	bne	a0,s2,80000f0e <sbrk_aligned+0x32>
    80000f34:	bfe1                	j	80000f0c <sbrk_aligned+0x30>

Disassembly of section .text._malloc_r:

0000000080000f36 <_malloc_r>:
    80000f36:	00758793          	addi	a5,a1,7
    80000f3a:	7179                	addi	sp,sp,-48
    80000f3c:	9be1                	andi	a5,a5,-8
    80000f3e:	ec26                	sd	s1,24(sp)
    80000f40:	e84a                	sd	s2,16(sp)
    80000f42:	f406                	sd	ra,40(sp)
    80000f44:	f022                	sd	s0,32(sp)
    80000f46:	e44e                	sd	s3,8(sp)
    80000f48:	07a1                	addi	a5,a5,8
    80000f4a:	4741                	li	a4,16
    80000f4c:	892a                	mv	s2,a0
    80000f4e:	44c1                	li	s1,16
    80000f50:	00e7e363          	bltu	a5,a4,80000f56 <_malloc_r+0x20>
    80000f54:	84be                	mv	s1,a5
    80000f56:	80000737          	lui	a4,0x80000
    80000f5a:	fff74713          	not	a4,a4
    80000f5e:	00f76463          	bltu	a4,a5,80000f66 <_malloc_r+0x30>
    80000f62:	00b4fd63          	bgeu	s1,a1,80000f7c <_malloc_r+0x46>
    80000f66:	47b1                	li	a5,12
    80000f68:	00f92023          	sw	a5,0(s2)
    80000f6c:	4501                	li	a0,0
    80000f6e:	70a2                	ld	ra,40(sp)
    80000f70:	7402                	ld	s0,32(sp)
    80000f72:	64e2                	ld	s1,24(sp)
    80000f74:	6942                	ld	s2,16(sp)
    80000f76:	69a2                	ld	s3,8(sp)
    80000f78:	6145                	addi	sp,sp,48
    80000f7a:	8082                	ret
    80000f7c:	854a                	mv	a0,s2
    80000f7e:	17a000ef          	jal	ra,800010f8 <__malloc_lock>
    80000f82:	84818993          	addi	s3,gp,-1976 # 800014b0 <__malloc_free_list>
    80000f86:	0009b783          	ld	a5,0(s3)
    80000f8a:	843e                	mv	s0,a5
    80000f8c:	e831                	bnez	s0,80000fe0 <_malloc_r+0xaa>
    80000f8e:	85a6                	mv	a1,s1
    80000f90:	854a                	mv	a0,s2
    80000f92:	f4bff0ef          	jal	ra,80000edc <sbrk_aligned>
    80000f96:	57fd                	li	a5,-1
    80000f98:	842a                	mv	s0,a0
    80000f9a:	0af51b63          	bne	a0,a5,80001050 <_malloc_r+0x11a>
    80000f9e:	0009b403          	ld	s0,0(s3)
    80000fa2:	87a2                	mv	a5,s0
    80000fa4:	efc1                	bnez	a5,8000103c <_malloc_r+0x106>
    80000fa6:	00043983          	ld	s3,0(s0)
    80000faa:	4581                	li	a1,0
    80000fac:	854a                	mv	a0,s2
    80000fae:	99a2                	add	s3,s3,s0
    80000fb0:	120000ef          	jal	ra,800010d0 <_sbrk_r>
    80000fb4:	08a99763          	bne	s3,a0,80001042 <_malloc_r+0x10c>
    80000fb8:	601c                	ld	a5,0(s0)
    80000fba:	049d                	addi	s1,s1,7
    80000fbc:	8c9d                	sub	s1,s1,a5
    80000fbe:	98e1                	andi	s1,s1,-8
    80000fc0:	04a1                	addi	s1,s1,8
    80000fc2:	47c1                	li	a5,16
    80000fc4:	00f4f363          	bgeu	s1,a5,80000fca <_malloc_r+0x94>
    80000fc8:	44c1                	li	s1,16
    80000fca:	85a6                	mv	a1,s1
    80000fcc:	854a                	mv	a0,s2
    80000fce:	f0fff0ef          	jal	ra,80000edc <sbrk_aligned>
    80000fd2:	57fd                	li	a5,-1
    80000fd4:	06f50763          	beq	a0,a5,80001042 <_malloc_r+0x10c>
    80000fd8:	601c                	ld	a5,0(s0)
    80000fda:	97a6                	add	a5,a5,s1
    80000fdc:	e01c                	sd	a5,0(s0)
    80000fde:	a015                	j	80001002 <_malloc_r+0xcc>
    80000fe0:	6014                	ld	a3,0(s0)
    80000fe2:	9e85                	subw	a3,a3,s1
    80000fe4:	0406c963          	bltz	a3,80001036 <_malloc_r+0x100>
    80000fe8:	473d                	li	a4,15
    80000fea:	02d75e63          	bge	a4,a3,80001026 <_malloc_r+0xf0>
    80000fee:	e004                	sd	s1,0(s0)
    80000ff0:	00940733          	add	a4,s0,s1
    80000ff4:	02879763          	bne	a5,s0,80001022 <_malloc_r+0xec>
    80000ff8:	00e9b023          	sd	a4,0(s3)
    80000ffc:	641c                	ld	a5,8(s0)
    80000ffe:	e314                	sd	a3,0(a4)
    80001000:	e71c                	sd	a5,8(a4)
    80001002:	854a                	mv	a0,s2
    80001004:	0f6000ef          	jal	ra,800010fa <__malloc_unlock>
    80001008:	00f40513          	addi	a0,s0,15
    8000100c:	00840793          	addi	a5,s0,8
    80001010:	9961                	andi	a0,a0,-8
    80001012:	40f507bb          	subw	a5,a0,a5
    80001016:	dfa1                	beqz	a5,80000f6e <_malloc_r+0x38>
    80001018:	943e                	add	s0,s0,a5
    8000101a:	40f007bb          	negw	a5,a5
    8000101e:	e01c                	sd	a5,0(s0)
    80001020:	b7b9                	j	80000f6e <_malloc_r+0x38>
    80001022:	e798                	sd	a4,8(a5)
    80001024:	bfe1                	j	80000ffc <_malloc_r+0xc6>
    80001026:	6418                	ld	a4,8(s0)
    80001028:	00879563          	bne	a5,s0,80001032 <_malloc_r+0xfc>
    8000102c:	00e9b023          	sd	a4,0(s3)
    80001030:	bfc9                	j	80001002 <_malloc_r+0xcc>
    80001032:	e798                	sd	a4,8(a5)
    80001034:	b7f9                	j	80001002 <_malloc_r+0xcc>
    80001036:	87a2                	mv	a5,s0
    80001038:	6400                	ld	s0,8(s0)
    8000103a:	bf89                	j	80000f8c <_malloc_r+0x56>
    8000103c:	843e                	mv	s0,a5
    8000103e:	679c                	ld	a5,8(a5)
    80001040:	b795                	j	80000fa4 <_malloc_r+0x6e>
    80001042:	47b1                	li	a5,12
    80001044:	00f92023          	sw	a5,0(s2)
    80001048:	854a                	mv	a0,s2
    8000104a:	0b0000ef          	jal	ra,800010fa <__malloc_unlock>
    8000104e:	bf39                	j	80000f6c <_malloc_r+0x36>
    80001050:	e104                	sd	s1,0(a0)
    80001052:	bf45                	j	80001002 <_malloc_r+0xcc>

Disassembly of section .text._realloc_r:

0000000080001054 <_realloc_r>:
    80001054:	7179                	addi	sp,sp,-48
    80001056:	f022                	sd	s0,32(sp)
    80001058:	f406                	sd	ra,40(sp)
    8000105a:	ec26                	sd	s1,24(sp)
    8000105c:	e84a                	sd	s2,16(sp)
    8000105e:	e44e                	sd	s3,8(sp)
    80001060:	e052                	sd	s4,0(sp)
    80001062:	8432                	mv	s0,a2
    80001064:	e991                	bnez	a1,80001078 <_realloc_r+0x24>
    80001066:	7402                	ld	s0,32(sp)
    80001068:	70a2                	ld	ra,40(sp)
    8000106a:	64e2                	ld	s1,24(sp)
    8000106c:	6942                	ld	s2,16(sp)
    8000106e:	69a2                	ld	s3,8(sp)
    80001070:	6a02                	ld	s4,0(sp)
    80001072:	85b2                	mv	a1,a2
    80001074:	6145                	addi	sp,sp,48
    80001076:	b5c1                	j	80000f36 <_malloc_r>
    80001078:	ee09                	bnez	a2,80001092 <_realloc_r+0x3e>
    8000107a:	dc3ff0ef          	jal	ra,80000e3c <_free_r>
    8000107e:	4481                	li	s1,0
    80001080:	70a2                	ld	ra,40(sp)
    80001082:	7402                	ld	s0,32(sp)
    80001084:	6942                	ld	s2,16(sp)
    80001086:	69a2                	ld	s3,8(sp)
    80001088:	6a02                	ld	s4,0(sp)
    8000108a:	8526                	mv	a0,s1
    8000108c:	64e2                	ld	s1,24(sp)
    8000108e:	6145                	addi	sp,sp,48
    80001090:	8082                	ret
    80001092:	8a2a                	mv	s4,a0
    80001094:	84ae                	mv	s1,a1
    80001096:	066000ef          	jal	ra,800010fc <_malloc_usable_size_r>
    8000109a:	892a                	mv	s2,a0
    8000109c:	00856663          	bltu	a0,s0,800010a8 <_realloc_r+0x54>
    800010a0:	00155793          	srli	a5,a0,0x1
    800010a4:	fc87eee3          	bltu	a5,s0,80001080 <_realloc_r+0x2c>
    800010a8:	85a2                	mv	a1,s0
    800010aa:	8552                	mv	a0,s4
    800010ac:	e8bff0ef          	jal	ra,80000f36 <_malloc_r>
    800010b0:	89aa                	mv	s3,a0
    800010b2:	d571                	beqz	a0,8000107e <_realloc_r+0x2a>
    800010b4:	8622                	mv	a2,s0
    800010b6:	00897363          	bgeu	s2,s0,800010bc <_realloc_r+0x68>
    800010ba:	864a                	mv	a2,s2
    800010bc:	85a6                	mv	a1,s1
    800010be:	854e                	mv	a0,s3
    800010c0:	a56ff0ef          	jal	ra,80000316 <memcpy>
    800010c4:	85a6                	mv	a1,s1
    800010c6:	8552                	mv	a0,s4
    800010c8:	d75ff0ef          	jal	ra,80000e3c <_free_r>
    800010cc:	84ce                	mv	s1,s3
    800010ce:	bf4d                	j	80001080 <_realloc_r+0x2c>

Disassembly of section .text._sbrk_r:

00000000800010d0 <_sbrk_r>:
    800010d0:	1141                	addi	sp,sp,-16
    800010d2:	e022                	sd	s0,0(sp)
    800010d4:	842a                	mv	s0,a0
    800010d6:	852e                	mv	a0,a1
    800010d8:	8401a823          	sw	zero,-1968(gp) # 800014b8 <errno>
    800010dc:	e406                	sd	ra,8(sp)
    800010de:	12e000ef          	jal	ra,8000120c <_sbrk>
    800010e2:	57fd                	li	a5,-1
    800010e4:	00f51663          	bne	a0,a5,800010f0 <_sbrk_r+0x20>
    800010e8:	8501a783          	lw	a5,-1968(gp) # 800014b8 <errno>
    800010ec:	c391                	beqz	a5,800010f0 <_sbrk_r+0x20>
    800010ee:	c01c                	sw	a5,0(s0)
    800010f0:	60a2                	ld	ra,8(sp)
    800010f2:	6402                	ld	s0,0(sp)
    800010f4:	0141                	addi	sp,sp,16
    800010f6:	8082                	ret

Disassembly of section .text.__malloc_lock:

00000000800010f8 <__malloc_lock>:
    800010f8:	8082                	ret

Disassembly of section .text.__malloc_unlock:

00000000800010fa <__malloc_unlock>:
    800010fa:	8082                	ret

Disassembly of section .text._malloc_usable_size_r:

00000000800010fc <_malloc_usable_size_r>:
    800010fc:	ff85b503          	ld	a0,-8(a1)
    80001100:	0005079b          	sext.w	a5,a0
    80001104:	1561                	addi	a0,a0,-8
    80001106:	0007d663          	bgez	a5,80001112 <_malloc_usable_size_r+0x16>
    8000110a:	95aa                	add	a1,a1,a0
    8000110c:	6188                	ld	a0,0(a1)
    8000110e:	17e1                	addi	a5,a5,-8
    80001110:	953e                	add	a0,a0,a5
    80001112:	8082                	ret

Disassembly of section .text.cleanup_glue:

0000000080001114 <cleanup_glue>:
    80001114:	1101                	addi	sp,sp,-32
    80001116:	e822                	sd	s0,16(sp)
    80001118:	842e                	mv	s0,a1
    8000111a:	618c                	ld	a1,0(a1)
    8000111c:	e426                	sd	s1,8(sp)
    8000111e:	ec06                	sd	ra,24(sp)
    80001120:	84aa                	mv	s1,a0
    80001122:	c199                	beqz	a1,80001128 <cleanup_glue+0x14>
    80001124:	ff1ff0ef          	jal	ra,80001114 <cleanup_glue>
    80001128:	85a2                	mv	a1,s0
    8000112a:	6442                	ld	s0,16(sp)
    8000112c:	60e2                	ld	ra,24(sp)
    8000112e:	8526                	mv	a0,s1
    80001130:	64a2                	ld	s1,8(sp)
    80001132:	6105                	addi	sp,sp,32
    80001134:	b321                	j	80000e3c <_free_r>

Disassembly of section .text._reclaim_reent:

0000000080001136 <_reclaim_reent>:
    80001136:	8301b783          	ld	a5,-2000(gp) # 80001498 <_impure_ptr>
    8000113a:	0ca78863          	beq	a5,a0,8000120a <_reclaim_reent+0xd4>
    8000113e:	613c                	ld	a5,64(a0)
    80001140:	7179                	addi	sp,sp,-48
    80001142:	f022                	sd	s0,32(sp)
    80001144:	f406                	sd	ra,40(sp)
    80001146:	ec26                	sd	s1,24(sp)
    80001148:	e84a                	sd	s2,16(sp)
    8000114a:	e44e                	sd	s3,8(sp)
    8000114c:	842a                	mv	s0,a0
    8000114e:	cb8d                	beqz	a5,80001180 <_reclaim_reent+0x4a>
    80001150:	6f9c                	ld	a5,24(a5)
    80001152:	c38d                	beqz	a5,80001174 <_reclaim_reent+0x3e>
    80001154:	4481                	li	s1,0
    80001156:	20000913          	li	s2,512
    8000115a:	603c                	ld	a5,64(s0)
    8000115c:	6f9c                	ld	a5,24(a5)
    8000115e:	97a6                	add	a5,a5,s1
    80001160:	638c                	ld	a1,0(a5)
    80001162:	e5d1                	bnez	a1,800011ee <_reclaim_reent+0xb8>
    80001164:	04a1                	addi	s1,s1,8
    80001166:	ff249ae3          	bne	s1,s2,8000115a <_reclaim_reent+0x24>
    8000116a:	603c                	ld	a5,64(s0)
    8000116c:	8522                	mv	a0,s0
    8000116e:	6f8c                	ld	a1,24(a5)
    80001170:	ccdff0ef          	jal	ra,80000e3c <_free_r>
    80001174:	603c                	ld	a5,64(s0)
    80001176:	638c                	ld	a1,0(a5)
    80001178:	c581                	beqz	a1,80001180 <_reclaim_reent+0x4a>
    8000117a:	8522                	mv	a0,s0
    8000117c:	cc1ff0ef          	jal	ra,80000e3c <_free_r>
    80001180:	740c                	ld	a1,40(s0)
    80001182:	c581                	beqz	a1,8000118a <_reclaim_reent+0x54>
    80001184:	8522                	mv	a0,s0
    80001186:	cb7ff0ef          	jal	ra,80000e3c <_free_r>
    8000118a:	602c                	ld	a1,64(s0)
    8000118c:	c581                	beqz	a1,80001194 <_reclaim_reent+0x5e>
    8000118e:	8522                	mv	a0,s0
    80001190:	cadff0ef          	jal	ra,80000e3c <_free_r>
    80001194:	702c                	ld	a1,96(s0)
    80001196:	c581                	beqz	a1,8000119e <_reclaim_reent+0x68>
    80001198:	8522                	mv	a0,s0
    8000119a:	ca3ff0ef          	jal	ra,80000e3c <_free_r>
    8000119e:	742c                	ld	a1,104(s0)
    800011a0:	c581                	beqz	a1,800011a8 <_reclaim_reent+0x72>
    800011a2:	8522                	mv	a0,s0
    800011a4:	c99ff0ef          	jal	ra,80000e3c <_free_r>
    800011a8:	782c                	ld	a1,112(s0)
    800011aa:	c581                	beqz	a1,800011b2 <_reclaim_reent+0x7c>
    800011ac:	8522                	mv	a0,s0
    800011ae:	c8fff0ef          	jal	ra,80000e3c <_free_r>
    800011b2:	744c                	ld	a1,168(s0)
    800011b4:	c581                	beqz	a1,800011bc <_reclaim_reent+0x86>
    800011b6:	8522                	mv	a0,s0
    800011b8:	c85ff0ef          	jal	ra,80000e3c <_free_r>
    800011bc:	704c                	ld	a1,160(s0)
    800011be:	c581                	beqz	a1,800011c6 <_reclaim_reent+0x90>
    800011c0:	8522                	mv	a0,s0
    800011c2:	c7bff0ef          	jal	ra,80000e3c <_free_r>
    800011c6:	6c2c                	ld	a1,88(s0)
    800011c8:	c581                	beqz	a1,800011d0 <_reclaim_reent+0x9a>
    800011ca:	8522                	mv	a0,s0
    800011cc:	c71ff0ef          	jal	ra,80000e3c <_free_r>
    800011d0:	581c                	lw	a5,48(s0)
    800011d2:	c78d                	beqz	a5,800011fc <_reclaim_reent+0xc6>
    800011d4:	643c                	ld	a5,72(s0)
    800011d6:	8522                	mv	a0,s0
    800011d8:	9782                	jalr	a5
    800011da:	604c                	ld	a1,128(s0)
    800011dc:	c185                	beqz	a1,800011fc <_reclaim_reent+0xc6>
    800011de:	8522                	mv	a0,s0
    800011e0:	7402                	ld	s0,32(sp)
    800011e2:	70a2                	ld	ra,40(sp)
    800011e4:	64e2                	ld	s1,24(sp)
    800011e6:	6942                	ld	s2,16(sp)
    800011e8:	69a2                	ld	s3,8(sp)
    800011ea:	6145                	addi	sp,sp,48
    800011ec:	b725                	j	80001114 <cleanup_glue>
    800011ee:	0005b983          	ld	s3,0(a1)
    800011f2:	8522                	mv	a0,s0
    800011f4:	c49ff0ef          	jal	ra,80000e3c <_free_r>
    800011f8:	85ce                	mv	a1,s3
    800011fa:	b7a5                	j	80001162 <_reclaim_reent+0x2c>
    800011fc:	70a2                	ld	ra,40(sp)
    800011fe:	7402                	ld	s0,32(sp)
    80001200:	64e2                	ld	s1,24(sp)
    80001202:	6942                	ld	s2,16(sp)
    80001204:	69a2                	ld	s3,8(sp)
    80001206:	6145                	addi	sp,sp,48
    80001208:	8082                	ret
    8000120a:	8082                	ret

Disassembly of section .text._sbrk:

000000008000120c <_sbrk>:
    8000120c:	85818693          	addi	a3,gp,-1960 # 800014c0 <heap_end.0>
    80001210:	6298                	ld	a4,0(a3)
    80001212:	1141                	addi	sp,sp,-16
    80001214:	e406                	sd	ra,8(sp)
    80001216:	87aa                	mv	a5,a0
    80001218:	e315                	bnez	a4,8000123c <_sbrk+0x30>
    8000121a:	0d600893          	li	a7,214
    8000121e:	4501                	li	a0,0
    80001220:	00000073          	ecall
    80001224:	577d                	li	a4,-1
    80001226:	00e51a63          	bne	a0,a4,8000123a <_sbrk+0x2e>
    8000122a:	02a000ef          	jal	ra,80001254 <__errno>
    8000122e:	47b1                	li	a5,12
    80001230:	c11c                	sw	a5,0(a0)
    80001232:	557d                	li	a0,-1
    80001234:	60a2                	ld	ra,8(sp)
    80001236:	0141                	addi	sp,sp,16
    80001238:	8082                	ret
    8000123a:	e288                	sd	a0,0(a3)
    8000123c:	6298                	ld	a4,0(a3)
    8000123e:	0d600893          	li	a7,214
    80001242:	97ba                	add	a5,a5,a4
    80001244:	853e                	mv	a0,a5
    80001246:	00000073          	ecall
    8000124a:	fef510e3          	bne	a0,a5,8000122a <_sbrk+0x1e>
    8000124e:	e288                	sd	a0,0(a3)
    80001250:	853a                	mv	a0,a4
    80001252:	b7cd                	j	80001234 <_sbrk+0x28>

Disassembly of section .text.__errno:

0000000080001254 <__errno>:
    80001254:	8301b503          	ld	a0,-2000(gp) # 80001498 <_impure_ptr>
    80001258:	8082                	ret
