
build/firmware.elf:     file format elf64-littleriscv


Disassembly of section .text:

0000000080000000 <_start>:
    80000000:	00040337          	lui	t1,0x40
    80000004:	2315                	addiw	t1,t1,5 # 40005 <_start-0x7ffbfffb>
    80000006:	0336                	slli	t1,t1,0xd
    80000008:	0002f2b7          	lui	t0,0x2f
    8000000c:	ab72829b          	addiw	t0,t0,-1353 # 2eab7 <_start-0x7ffd1549>
    80000010:	02ba                	slli	t0,t0,0xe
    80000012:	0de28293          	addi	t0,t0,222
    80000016:	00532023          	sw	t0,0(t1)
    8000001a:	4081                	li	ra,0
    8000001c:	4101                	li	sp,0
    8000001e:	4181                	li	gp,0
    80000020:	4201                	li	tp,0
    80000022:	4281                	li	t0,0
    80000024:	4301                	li	t1,0
    80000026:	4381                	li	t2,0
    80000028:	4401                	li	s0,0
    8000002a:	4481                	li	s1,0
    8000002c:	4501                	li	a0,0
    8000002e:	4581                	li	a1,0
    80000030:	4601                	li	a2,0
    80000032:	4681                	li	a3,0
    80000034:	4701                	li	a4,0
    80000036:	4781                	li	a5,0
    80000038:	4801                	li	a6,0
    8000003a:	4881                	li	a7,0
    8000003c:	4901                	li	s2,0
    8000003e:	4981                	li	s3,0
    80000040:	4a01                	li	s4,0
    80000042:	4a81                	li	s5,0
    80000044:	4b01                	li	s6,0
    80000046:	4b81                	li	s7,0
    80000048:	4c01                	li	s8,0
    8000004a:	4c81                	li	s9,0
    8000004c:	4d01                	li	s10,0
    8000004e:	4d81                	li	s11,0
    80000050:	4e01                	li	t3,0
    80000052:	4e81                	li	t4,0
    80000054:	4f01                	li	t5,0
    80000056:	4f81                	li	t6,0
    80000058:	00000297          	auipc	t0,0x0
    8000005c:	2fa28293          	addi	t0,t0,762 # 80000352 <isr_vector>
    80000060:	30529073          	csrw	mtvec,t0
    80000064:	00002197          	auipc	gp,0x2
    80000068:	c0418193          	addi	gp,gp,-1020 # 80001c68 <__global_pointer$>
    8000006c:	00080237          	lui	tp,0x80
    80000070:	2215                	addiw	tp,tp,5 # 80005 <_start-0x7ff7fffb>
    80000072:	0232                	slli	tp,tp,0xc
    80000074:	50020213          	addi	tp,tp,1280 # 500 <_start-0x7ffffb00>
    80000078:	00080137          	lui	sp,0x80
    8000007c:	2115                	addiw	sp,sp,5 # 80005 <_start-0x7ff7fffb>
    8000007e:	0132                	slli	sp,sp,0xc
    80000080:	f1402573          	csrr	a0,mhartid
    80000084:	4585                	li	a1,1
    80000086:	0fa000ef          	jal	ra,80000180 <system_init>
    8000008a:	350000ef          	jal	ra,800003da <main>

000000008000008e <infinite_loop>:
    8000008e:	a001                	j	8000008e <infinite_loop>
	...

0000000080000092 <plic_set_bit>:
    80000092:	4785                	li	a5,1
    80000094:	00b797bb          	sllw	a5,a5,a1
    80000098:	410c                	lw	a1,0(a0)
    8000009a:	8ddd                	or	a1,a1,a5
    8000009c:	c10c                	sw	a1,0(a0)
    8000009e:	8082                	ret

00000000800000a0 <plic_enable_for_hart>:
    800000a0:	0055151b          	slliw	a0,a0,0x5
    800000a4:	1502                	slli	a0,a0,0x20
    800000a6:	8179                	srli	a0,a0,0x1e
    800000a8:	0c0027b7          	lui	a5,0xc002
    800000ac:	953e                	add	a0,a0,a5
    800000ae:	b7d5                	j	80000092 <plic_set_bit>

00000000800000b0 <plic_set_priority>:
    800000b0:	02051793          	slli	a5,a0,0x20
    800000b4:	01e7d513          	srli	a0,a5,0x1e
    800000b8:	0c0007b7          	lui	a5,0xc000
    800000bc:	97aa                	add	a5,a5,a0
    800000be:	c38c                	sw	a1,0(a5)
    800000c0:	8082                	ret

00000000800000c2 <plic_claim_irq>:
    800000c2:	02051793          	slli	a5,a0,0x20
    800000c6:	01d7d513          	srli	a0,a5,0x1d
    800000ca:	0c2007b7          	lui	a5,0xc200
    800000ce:	97aa                	add	a5,a5,a0
    800000d0:	43c8                	lw	a0,4(a5)
    800000d2:	8082                	ret

00000000800000d4 <plic_complete_irq>:
    800000d4:	02051793          	slli	a5,a0,0x20
    800000d8:	01d7d513          	srli	a0,a5,0x1d
    800000dc:	0c2007b7          	lui	a5,0xc200
    800000e0:	97aa                	add	a5,a5,a0
    800000e2:	c3cc                	sw	a1,4(a5)
    800000e4:	8082                	ret

00000000800000e6 <print_fcsr>:
    800000e6:	7175                	addi	sp,sp,-144
    800000e8:	e506                	sd	ra,136(sp)
    800000ea:	00302673          	frcsr	a2
    800000ee:	00001597          	auipc	a1,0x1
    800000f2:	1da58593          	addi	a1,a1,474 # 800012c8 <__errno+0x74>
    800000f6:	850a                	mv	a0,sp
    800000f8:	44c000ef          	jal	ra,80000544 <siprintf>
    800000fc:	850a                	mv	a0,sp
    800000fe:	49c000ef          	jal	ra,8000059a <strlen>
    80000102:	03051613          	slli	a2,a0,0x30
    80000106:	4681                	li	a3,0
    80000108:	9241                	srli	a2,a2,0x30
    8000010a:	858a                	mv	a1,sp
    8000010c:	1001a537          	lui	a0,0x1001a
    80000110:	1e6000ef          	jal	ra,800002f6 <HAL_UART_transmit>
    80000114:	30102673          	csrr	a2,misa
    80000118:	00001597          	auipc	a1,0x1
    8000011c:	1c058593          	addi	a1,a1,448 # 800012d8 <__errno+0x84>
    80000120:	850a                	mv	a0,sp
    80000122:	422000ef          	jal	ra,80000544 <siprintf>
    80000126:	850a                	mv	a0,sp
    80000128:	472000ef          	jal	ra,8000059a <strlen>
    8000012c:	03051613          	slli	a2,a0,0x30
    80000130:	4681                	li	a3,0
    80000132:	9241                	srli	a2,a2,0x30
    80000134:	858a                	mv	a1,sp
    80000136:	1001a537          	lui	a0,0x1001a
    8000013a:	1bc000ef          	jal	ra,800002f6 <HAL_UART_transmit>
    8000013e:	f1202673          	csrr	a2,marchid
    80000142:	00001597          	auipc	a1,0x1
    80000146:	1ae58593          	addi	a1,a1,430 # 800012f0 <__errno+0x9c>
    8000014a:	850a                	mv	a0,sp
    8000014c:	3f8000ef          	jal	ra,80000544 <siprintf>
    80000150:	850a                	mv	a0,sp
    80000152:	448000ef          	jal	ra,8000059a <strlen>
    80000156:	03051613          	slli	a2,a0,0x30
    8000015a:	858a                	mv	a1,sp
    8000015c:	4681                	li	a3,0
    8000015e:	9241                	srli	a2,a2,0x30
    80000160:	1001a537          	lui	a0,0x1001a
    80000164:	192000ef          	jal	ra,800002f6 <HAL_UART_transmit>
    80000168:	60aa                	ld	ra,136(sp)
    8000016a:	6149                	addi	sp,sp,144
    8000016c:	8082                	ret

000000008000016e <enable_fpu>:
    8000016e:	300027f3          	csrr	a5,mstatus
    80000172:	6709                	lui	a4,0x2
    80000174:	8fd9                	or	a5,a5,a4
    80000176:	30079073          	csrw	mstatus,a5
    8000017a:	00307073          	csrci	fcsr,0
    8000017e:	8082                	ret

0000000080000180 <system_init>:
    80000180:	6321                	lui	t1,0x8
    80000182:	0203031b          	addiw	t1,t1,32 # 8020 <_start-0x7fff7fe0>
    80000186:	4285                	li	t0,1
    80000188:	00532023          	sw	t0,0(t1)
    8000018c:	b7cd                	j	8000016e <enable_fpu>

000000008000018e <UserSoftware_IRQn_Handler>:
    8000018e:	8082                	ret

0000000080000190 <SupervisorSoftware_IRQn_Handler>:
    80000190:	8082                	ret

0000000080000192 <HypervisorSoftware_IRQn_Handler>:
    80000192:	8082                	ret

0000000080000194 <MachineSoftware_IRQn_Handler>:
    80000194:	8082                	ret

0000000080000196 <UserTimer_IRQn_Handler>:
    80000196:	8082                	ret

0000000080000198 <SupervisorTimer_IRQn_Handler>:
    80000198:	8082                	ret

000000008000019a <HypervisorTimer_IRQn_Handler>:
    8000019a:	8082                	ret

000000008000019c <MachineTimer_IRQn_Handler>:
    8000019c:	8082                	ret

000000008000019e <UserExternal_IRQn_Handler>:
    8000019e:	8082                	ret

00000000800001a0 <SupervisorExternal_IRQn_Handler>:
    800001a0:	8082                	ret

00000000800001a2 <HypervisorExternal_IRQn_Handler>:
    800001a2:	8082                	ret

00000000800001a4 <MachineExternal_IRQn_Handler>:
    800001a4:	1101                	addi	sp,sp,-32
    800001a6:	850a                	mv	a0,sp
    800001a8:	4601                	li	a2,0
    800001aa:	00001597          	auipc	a1,0x1
    800001ae:	15e58593          	addi	a1,a1,350 # 80001308 <__errno+0xb4>
    800001b2:	ec06                	sd	ra,24(sp)
    800001b4:	390000ef          	jal	ra,80000544 <siprintf>
    800001b8:	60e2                	ld	ra,24(sp)
    800001ba:	6105                	addi	sp,sp,32
    800001bc:	8082                	ret

00000000800001be <trap_handler>:
    800001be:	342027f3          	csrr	a5,mcause
    800001c2:	0007871b          	sext.w	a4,a5
    800001c6:	01f7d79b          	srliw	a5,a5,0x1f
    800001ca:	cf95                	beqz	a5,80000206 <trap_handler+0x48>
    800001cc:	1141                	addi	sp,sp,-16
    800001ce:	800007b7          	lui	a5,0x80000
    800001d2:	e406                	sd	ra,8(sp)
    800001d4:	00378693          	addi	a3,a5,3 # ffffffff80000003 <__global_pointer$+0xfffffffeffffe39b>
    800001d8:	00d71f63          	bne	a4,a3,800001f6 <trap_handler+0x38>
    800001dc:	020007b7          	lui	a5,0x2000
    800001e0:	0007a023          	sw	zero,0(a5) # 2000000 <_start-0x7e000000>
    800001e4:	4501                	li	a0,0
    800001e6:	eddff0ef          	jal	ra,800000c2 <plic_claim_irq>
    800001ea:	60a2                	ld	ra,8(sp)
    800001ec:	0005059b          	sext.w	a1,a0
    800001f0:	4501                	li	a0,0
    800001f2:	0141                	addi	sp,sp,16
    800001f4:	b5c5                	j	800000d4 <plic_complete_irq>
    800001f6:	079d                	addi	a5,a5,7
    800001f8:	fef716e3          	bne	a4,a5,800001e4 <trap_handler+0x26>
    800001fc:	020047b7          	lui	a5,0x2004
    80000200:	577d                	li	a4,-1
    80000202:	e398                	sd	a4,0(a5)
    80000204:	b7c5                	j	800001e4 <trap_handler+0x26>
    80000206:	8082                	ret

0000000080000208 <HAL_init>:
    80000208:	8082                	ret

000000008000020a <HAL_getTick>:
    8000020a:	a0b9                	j	80000258 <HAL_CLINT_getMTime>

000000008000020c <HAL_delay>:
    8000020c:	1141                	addi	sp,sp,-16
    8000020e:	e022                	sd	s0,0(sp)
    80000210:	e406                	sd	ra,8(sp)
    80000212:	842a                	mv	s0,a0
    80000214:	044000ef          	jal	ra,80000258 <HAL_CLINT_getMTime>
    80000218:	47a9                	li	a5,10
    8000021a:	02f40433          	mul	s0,s0,a5
    8000021e:	942a                	add	s0,s0,a0
    80000220:	038000ef          	jal	ra,80000258 <HAL_CLINT_getMTime>
    80000224:	fe856ee3          	bltu	a0,s0,80000220 <HAL_delay+0x14>
    80000228:	60a2                	ld	ra,8(sp)
    8000022a:	6402                	ld	s0,0(sp)
    8000022c:	0141                	addi	sp,sp,16
    8000022e:	8082                	ret

0000000080000230 <HAL_CORE_enableInterrupt>:
    80000230:	47a1                	li	a5,8
    80000232:	3007a073          	csrs	mstatus,a5
    80000236:	8082                	ret

0000000080000238 <HAL_CORE_enableIRQ>:
    80000238:	4785                	li	a5,1
    8000023a:	00a797bb          	sllw	a5,a5,a0
    8000023e:	3047a073          	csrs	mie,a5
    80000242:	8082                	ret

0000000080000244 <HAL_CLINT_triggerInterrupt>:
    80000244:	020006b7          	lui	a3,0x2000
    80000248:	429c                	lw	a5,0(a3)
    8000024a:	4705                	li	a4,1
    8000024c:	00a7173b          	sllw	a4,a4,a0
    80000250:	8fd9                	or	a5,a5,a4
    80000252:	2781                	sext.w	a5,a5
    80000254:	c29c                	sw	a5,0(a3)
    80000256:	8082                	ret

0000000080000258 <HAL_CLINT_getMTime>:
    80000258:	0200c737          	lui	a4,0x200c
    8000025c:	ffc76783          	lwu	a5,-4(a4) # 200bffc <_start-0x7dff4004>
    80000260:	ff876503          	lwu	a0,-8(a4)
    80000264:	1782                	slli	a5,a5,0x20
    80000266:	8d5d                	or	a0,a0,a5
    80000268:	8082                	ret

000000008000026a <HAL_CLINT_setMTimeCmp>:
    8000026a:	020047b7          	lui	a5,0x2004
    8000026e:	c388                	sw	a0,0(a5)
    80000270:	9101                	srli	a0,a0,0x20
    80000272:	c3c8                	sw	a0,4(a5)
    80000274:	8082                	ret

0000000080000276 <HAL_GPIO_init>:
    80000276:	451c                	lw	a5,8(a0)
    80000278:	8fcd                	or	a5,a5,a1
    8000027a:	c51c                	sw	a5,8(a0)
    8000027c:	8082                	ret

000000008000027e <HAL_GPIO_readPin>:
    8000027e:	4108                	lw	a0,0(a0)
    80000280:	8d6d                	and	a0,a0,a1
    80000282:	00a03533          	snez	a0,a0
    80000286:	8082                	ret

0000000080000288 <HAL_GPIO_writePin>:
    80000288:	455c                	lw	a5,12(a0)
    8000028a:	c601                	beqz	a2,80000292 <HAL_GPIO_writePin+0xa>
    8000028c:	8fcd                	or	a5,a5,a1
    8000028e:	c55c                	sw	a5,12(a0)
    80000290:	8082                	ret
    80000292:	fff5c593          	not	a1,a1
    80000296:	8dfd                	and	a1,a1,a5
    80000298:	c54c                	sw	a1,12(a0)
    8000029a:	8082                	ret

000000008000029c <HAL_RCC_InitSystemClock>:
    8000029c:	8082                	ret

000000008000029e <HAL_UART_init>:
    8000029e:	455c                	lw	a5,12(a0)
    800002a0:	4198                	lw	a4,0(a1)
    800002a2:	0017e793          	ori	a5,a5,1
    800002a6:	c55c                	sw	a5,12(a0)
    800002a8:	451c                	lw	a5,8(a0)
    800002aa:	0017e793          	ori	a5,a5,1
    800002ae:	c51c                	sw	a5,8(a0)
    800002b0:	000317b7          	lui	a5,0x31
    800002b4:	d407879b          	addiw	a5,a5,-704 # 30d40 <_start-0x7ffcf2c0>
    800002b8:	02e7d7bb          	divuw	a5,a5,a4
    800002bc:	37fd                	addiw	a5,a5,-1
    800002be:	cd1c                	sw	a5,24(a0)
    800002c0:	8082                	ret

00000000800002c2 <HAL_UART_getRXFIFODepth>:
    800002c2:	4548                	lw	a0,12(a0)
    800002c4:	0105551b          	srliw	a0,a0,0x10
    800002c8:	891d                	andi	a0,a0,7
    800002ca:	8082                	ret

00000000800002cc <HAL_UART_getTXFIFODepth>:
    800002cc:	4508                	lw	a0,8(a0)
    800002ce:	0105551b          	srliw	a0,a0,0x10
    800002d2:	891d                	andi	a0,a0,7
    800002d4:	8082                	ret

00000000800002d6 <HAL_UART_receive>:
    800002d6:	e219                	bnez	a2,800002dc <HAL_UART_receive+0x6>
    800002d8:	4501                	li	a0,0
    800002da:	8082                	ret
    800002dc:	455c                	lw	a5,12(a0)
    800002de:	0107d79b          	srliw	a5,a5,0x10
    800002e2:	8b9d                	andi	a5,a5,7
    800002e4:	dfe5                	beqz	a5,800002dc <HAL_UART_receive+0x6>
    800002e6:	415c                	lw	a5,4(a0)
    800002e8:	367d                	addiw	a2,a2,-1
    800002ea:	1642                	slli	a2,a2,0x30
    800002ec:	00f58023          	sb	a5,0(a1)
    800002f0:	9241                	srli	a2,a2,0x30
    800002f2:	0585                	addi	a1,a1,1
    800002f4:	b7cd                	j	800002d6 <HAL_UART_receive>

00000000800002f6 <HAL_UART_transmit>:
    800002f6:	e219                	bnez	a2,800002fc <HAL_UART_transmit+0x6>
    800002f8:	4501                	li	a0,0
    800002fa:	8082                	ret
    800002fc:	451c                	lw	a5,8(a0)
    800002fe:	0107d79b          	srliw	a5,a5,0x10
    80000302:	8b9d                	andi	a5,a5,7
    80000304:	ffe5                	bnez	a5,800002fc <HAL_UART_transmit+0x6>
    80000306:	0005c783          	lbu	a5,0(a1)
    8000030a:	367d                	addiw	a2,a2,-1
    8000030c:	1642                	slli	a2,a2,0x30
    8000030e:	c11c                	sw	a5,0(a0)
    80000310:	0585                	addi	a1,a1,1
    80000312:	9241                	srli	a2,a2,0x30
    80000314:	b7cd                	j	800002f6 <HAL_UART_transmit>

0000000080000316 <memcpy>:
    80000316:	832a                	mv	t1,a0
    80000318:	ca09                	beqz	a2,8000032a <memcpy+0x14>
    8000031a:	00058383          	lb	t2,0(a1)
    8000031e:	00730023          	sb	t2,0(t1)
    80000322:	167d                	addi	a2,a2,-1
    80000324:	0305                	addi	t1,t1,1
    80000326:	0585                	addi	a1,a1,1
    80000328:	fa6d                	bnez	a2,8000031a <memcpy+0x4>
    8000032a:	8082                	ret

000000008000032c <memmove>:
    8000032c:	c215                	beqz	a2,80000350 <memmove+0x24>
    8000032e:	832a                	mv	t1,a0
    80000330:	4685                	li	a3,1
    80000332:	00b56763          	bltu	a0,a1,80000340 <memmove+0x14>
    80000336:	56fd                	li	a3,-1
    80000338:	fff60713          	addi	a4,a2,-1
    8000033c:	933a                	add	t1,t1,a4
    8000033e:	95ba                	add	a1,a1,a4
    80000340:	00058383          	lb	t2,0(a1)
    80000344:	00730023          	sb	t2,0(t1)
    80000348:	167d                	addi	a2,a2,-1
    8000034a:	9336                	add	t1,t1,a3
    8000034c:	95b6                	add	a1,a1,a3
    8000034e:	fa6d                	bnez	a2,80000340 <memmove+0x14>
    80000350:	8082                	ret

Disassembly of section .text.isr_vector:

0000000080000352 <isr_vector>:
    80000352:	7119                	addi	sp,sp,-128
    80000354:	c206                	sw	ra,4(sp)
    80000356:	c40a                	sw	sp,8(sp)
    80000358:	c60e                	sw	gp,12(sp)
    8000035a:	c812                	sw	tp,16(sp)
    8000035c:	ca16                	sw	t0,20(sp)
    8000035e:	cc1a                	sw	t1,24(sp)
    80000360:	ce1e                	sw	t2,28(sp)
    80000362:	d022                	sw	s0,32(sp)
    80000364:	d226                	sw	s1,36(sp)
    80000366:	d42a                	sw	a0,40(sp)
    80000368:	d62e                	sw	a1,44(sp)
    8000036a:	d832                	sw	a2,48(sp)
    8000036c:	da36                	sw	a3,52(sp)
    8000036e:	dc3a                	sw	a4,56(sp)
    80000370:	de3e                	sw	a5,60(sp)
    80000372:	c0c2                	sw	a6,64(sp)
    80000374:	c2c6                	sw	a7,68(sp)
    80000376:	c4ca                	sw	s2,72(sp)
    80000378:	c6ce                	sw	s3,76(sp)
    8000037a:	c8d2                	sw	s4,80(sp)
    8000037c:	cad6                	sw	s5,84(sp)
    8000037e:	ccda                	sw	s6,88(sp)
    80000380:	cede                	sw	s7,92(sp)
    80000382:	d0e2                	sw	s8,96(sp)
    80000384:	d2e6                	sw	s9,100(sp)
    80000386:	d4ea                	sw	s10,104(sp)
    80000388:	d6ee                	sw	s11,108(sp)
    8000038a:	d8f2                	sw	t3,112(sp)
    8000038c:	daf6                	sw	t4,116(sp)
    8000038e:	dcfa                	sw	t5,120(sp)
    80000390:	defe                	sw	t6,124(sp)
    80000392:	e2dff0ef          	jal	ra,800001be <trap_handler>
    80000396:	4092                	lw	ra,4(sp)
    80000398:	4122                	lw	sp,8(sp)
    8000039a:	41b2                	lw	gp,12(sp)
    8000039c:	4242                	lw	tp,16(sp)
    8000039e:	42d2                	lw	t0,20(sp)
    800003a0:	4362                	lw	t1,24(sp)
    800003a2:	43f2                	lw	t2,28(sp)
    800003a4:	5402                	lw	s0,32(sp)
    800003a6:	5492                	lw	s1,36(sp)
    800003a8:	5522                	lw	a0,40(sp)
    800003aa:	55b2                	lw	a1,44(sp)
    800003ac:	5642                	lw	a2,48(sp)
    800003ae:	56d2                	lw	a3,52(sp)
    800003b0:	5762                	lw	a4,56(sp)
    800003b2:	57f2                	lw	a5,60(sp)
    800003b4:	4806                	lw	a6,64(sp)
    800003b6:	4896                	lw	a7,68(sp)
    800003b8:	4926                	lw	s2,72(sp)
    800003ba:	49b6                	lw	s3,76(sp)
    800003bc:	4a46                	lw	s4,80(sp)
    800003be:	4ad6                	lw	s5,84(sp)
    800003c0:	4b66                	lw	s6,88(sp)
    800003c2:	4bf6                	lw	s7,92(sp)
    800003c4:	5c06                	lw	s8,96(sp)
    800003c6:	5c96                	lw	s9,100(sp)
    800003c8:	5d26                	lw	s10,104(sp)
    800003ca:	5db6                	lw	s11,108(sp)
    800003cc:	5e46                	lw	t3,112(sp)
    800003ce:	5ed6                	lw	t4,116(sp)
    800003d0:	5f66                	lw	t5,120(sp)
    800003d2:	5ff6                	lw	t6,124(sp)
    800003d4:	6109                	addi	sp,sp,128
    800003d6:	30200073          	mret

Disassembly of section .text.startup:

00000000800003da <main>:
    800003da:	7159                	addi	sp,sp,-112
    800003dc:	f486                	sd	ra,104(sp)
    800003de:	f0a2                	sd	s0,96(sp)
    800003e0:	eca6                	sd	s1,88(sp)
    800003e2:	e8ca                	sd	s2,80(sp)
    800003e4:	e4ce                	sd	s3,72(sp)
    800003e6:	e0d2                	sd	s4,64(sp)
    800003e8:	fc56                	sd	s5,56(sp)
    800003ea:	b422                	fsd	fs0,40(sp)
    800003ec:	b026                	fsd	fs1,32(sp)
    800003ee:	ac4a                	fsd	fs2,24(sp)
    800003f0:	a84e                	fsd	fs3,16(sp)
    800003f2:	e17ff0ef          	jal	ra,80000208 <HAL_init>
    800003f6:	6789                	lui	a5,0x2
    800003f8:	71078793          	addi	a5,a5,1808 # 2710 <_start-0x7fffd8f0>
    800003fc:	002c                	addi	a1,sp,8
    800003fe:	1001a537          	lui	a0,0x1001a
    80000402:	c43e                	sw	a5,8(sp)
    80000404:	e9bff0ef          	jal	ra,8000029e <HAL_UART_init>
    80000408:	cdfff0ef          	jal	ra,800000e6 <print_fcsr>
    8000040c:	cdbff0ef          	jal	ra,800000e6 <print_fcsr>
    80000410:	00001597          	auipc	a1,0x1
    80000414:	e5058593          	addi	a1,a1,-432 # 80001260 <__errno+0xc>
    80000418:	86018513          	addi	a0,gp,-1952 # 800014c8 <str>
    8000041c:	16c000ef          	jal	ra,80000588 <strcpy>
    80000420:	86018513          	addi	a0,gp,-1952 # 800014c8 <str>
    80000424:	176000ef          	jal	ra,8000059a <strlen>
    80000428:	03051613          	slli	a2,a0,0x30
    8000042c:	4681                	li	a3,0
    8000042e:	9241                	srli	a2,a2,0x30
    80000430:	86018593          	addi	a1,gp,-1952 # 800014c8 <str>
    80000434:	1001a537          	lui	a0,0x1001a
    80000438:	ebfff0ef          	jal	ra,800002f6 <HAL_UART_transmit>
    8000043c:	000807b7          	lui	a5,0x80
    80000440:	07ad                	addi	a5,a5,11 # 8000b <_start-0x7ff7fff5>
    80000442:	deadc737          	lui	a4,0xdeadc
    80000446:	07b2                	slli	a5,a5,0xc
    80000448:	eef70713          	addi	a4,a4,-273 # ffffffffdeadbeef <__global_pointer$+0xffffffff5eada287>
    8000044c:	c398                	sw	a4,0(a5)
    8000044e:	00001797          	auipc	a5,0x1
    80000452:	01a7a407          	flw	fs0,26(a5) # 80001468 <impure_data+0xb0>
    80000456:	208409d3          	fmv.s	fs3,fs0
    8000045a:	00001797          	auipc	a5,0x1
    8000045e:	0127a487          	flw	fs1,18(a5) # 8000146c <impure_data+0xb4>
    80000462:	490d                	li	s2,3
    80000464:	44a9                	li	s1,10
    80000466:	4a8d                	li	s5,3
    80000468:	00001a17          	auipc	s4,0x1
    8000046c:	e18a0a13          	addi	s4,s4,-488 # 80001280 <__errno+0x2c>
    80000470:	86018413          	addi	s0,gp,-1952 # 800014c8 <str>
    80000474:	00001797          	auipc	a5,0x1
    80000478:	ffc7a907          	flw	fs2,-4(a5) # 80001470 <impure_data+0xb8>
    8000047c:	00001997          	auipc	s3,0x1
    80000480:	e2498993          	addi	s3,s3,-476 # 800012a0 <__errno+0x4c>
    80000484:	029a84bb          	mulw	s1,s5,s1
    80000488:	2905                	addiw	s2,s2,1
    8000048a:	86ca                	mv	a3,s2
    8000048c:	85d2                	mv	a1,s4
    8000048e:	8522                	mv	a0,s0
    80000490:	0324c73b          	divw	a4,s1,s2
    80000494:	8626                	mv	a2,s1
    80000496:	0ae000ef          	jal	ra,80000544 <siprintf>
    8000049a:	8522                	mv	a0,s0
    8000049c:	0fe000ef          	jal	ra,8000059a <strlen>
    800004a0:	03051613          	slli	a2,a0,0x30
    800004a4:	85a2                	mv	a1,s0
    800004a6:	4681                	li	a3,0
    800004a8:	9241                	srli	a2,a2,0x30
    800004aa:	1001a537          	lui	a0,0x1001a
    800004ae:	e49ff0ef          	jal	ra,800002f6 <HAL_UART_transmit>
    800004b2:	06400513          	li	a0,100
    800004b6:	d57ff0ef          	jal	ra,8000020c <HAL_delay>
    800004ba:	1134f4d3          	fmul.s	fs1,fs1,fs3
    800004be:	01247453          	fadd.s	fs0,fs0,fs2
    800004c2:	85ce                	mv	a1,s3
    800004c4:	8522                	mv	a0,s0
    800004c6:	1884f7d3          	fdiv.s	fa5,fs1,fs0
    800004ca:	420787d3          	fcvt.d.s	fa5,fa5
    800004ce:	e2078753          	fmv.x.d	a4,fa5
    800004d2:	420407d3          	fcvt.d.s	fa5,fs0
    800004d6:	e20786d3          	fmv.x.d	a3,fa5
    800004da:	420487d3          	fcvt.d.s	fa5,fs1
    800004de:	e2078653          	fmv.x.d	a2,fa5
    800004e2:	062000ef          	jal	ra,80000544 <siprintf>
    800004e6:	06400513          	li	a0,100
    800004ea:	d23ff0ef          	jal	ra,8000020c <HAL_delay>
    800004ee:	8522                	mv	a0,s0
    800004f0:	0aa000ef          	jal	ra,8000059a <strlen>
    800004f4:	03051613          	slli	a2,a0,0x30
    800004f8:	4681                	li	a3,0
    800004fa:	9241                	srli	a2,a2,0x30
    800004fc:	85a2                	mv	a1,s0
    800004fe:	1001a537          	lui	a0,0x1001a
    80000502:	df5ff0ef          	jal	ra,800002f6 <HAL_UART_transmit>
    80000506:	bfbd                	j	80000484 <main+0xaa>

Disassembly of section .text._sprintf_r:

0000000080000508 <_siprintf_r>:
    80000508:	7111                	addi	sp,sp,-256
    8000050a:	f5be                	sd	a5,232(sp)
    8000050c:	800007b7          	lui	a5,0x80000
    80000510:	fff7c793          	not	a5,a5
    80000514:	d83e                	sw	a5,48(sp)
    80000516:	ce3e                	sw	a5,28(sp)
    80000518:	77c1                	lui	a5,0xffff0
    8000051a:	edb6                	sd	a3,216(sp)
    8000051c:	e82e                	sd	a1,16(sp)
    8000051e:	f42e                	sd	a1,40(sp)
    80000520:	20878793          	addi	a5,a5,520 # ffffffffffff0208 <__global_pointer$+0xffffffff7ffee5a0>
    80000524:	09b4                	addi	a3,sp,216
    80000526:	080c                	addi	a1,sp,16
    80000528:	e586                	sd	ra,200(sp)
    8000052a:	d03e                	sw	a5,32(sp)
    8000052c:	f1ba                	sd	a4,224(sp)
    8000052e:	f9c2                	sd	a6,240(sp)
    80000530:	fdc6                	sd	a7,248(sp)
    80000532:	e436                	sd	a3,8(sp)
    80000534:	2a8000ef          	jal	ra,800007dc <_svfiprintf_r>
    80000538:	67c2                	ld	a5,16(sp)
    8000053a:	00078023          	sb	zero,0(a5)
    8000053e:	60ae                	ld	ra,200(sp)
    80000540:	6111                	addi	sp,sp,256
    80000542:	8082                	ret

Disassembly of section .text.sprintf:

0000000080000544 <siprintf>:
    80000544:	7111                	addi	sp,sp,-256
    80000546:	f5be                	sd	a5,232(sp)
    80000548:	800007b7          	lui	a5,0x80000
    8000054c:	fff7c793          	not	a5,a5
    80000550:	d83e                	sw	a5,48(sp)
    80000552:	ce3e                	sw	a5,28(sp)
    80000554:	77c1                	lui	a5,0xffff0
    80000556:	e9b2                	sd	a2,208(sp)
    80000558:	edb6                	sd	a3,216(sp)
    8000055a:	e82a                	sd	a0,16(sp)
    8000055c:	f42a                	sd	a0,40(sp)
    8000055e:	20878793          	addi	a5,a5,520 # ffffffffffff0208 <__global_pointer$+0xffffffff7ffee5a0>
    80000562:	0994                	addi	a3,sp,208
    80000564:	862e                	mv	a2,a1
    80000566:	8301b503          	ld	a0,-2000(gp) # 80001498 <_impure_ptr>
    8000056a:	080c                	addi	a1,sp,16
    8000056c:	e586                	sd	ra,200(sp)
    8000056e:	d03e                	sw	a5,32(sp)
    80000570:	f1ba                	sd	a4,224(sp)
    80000572:	f9c2                	sd	a6,240(sp)
    80000574:	fdc6                	sd	a7,248(sp)
    80000576:	e436                	sd	a3,8(sp)
    80000578:	264000ef          	jal	ra,800007dc <_svfiprintf_r>
    8000057c:	67c2                	ld	a5,16(sp)
    8000057e:	00078023          	sb	zero,0(a5)
    80000582:	60ae                	ld	ra,200(sp)
    80000584:	6111                	addi	sp,sp,256
    80000586:	8082                	ret

Disassembly of section .text.strcpy:

0000000080000588 <strcpy>:
    80000588:	87aa                	mv	a5,a0
    8000058a:	0005c703          	lbu	a4,0(a1)
    8000058e:	0785                	addi	a5,a5,1
    80000590:	0585                	addi	a1,a1,1
    80000592:	fee78fa3          	sb	a4,-1(a5)
    80000596:	fb75                	bnez	a4,8000058a <strcpy+0x2>
    80000598:	8082                	ret

Disassembly of section .text.strlen:

000000008000059a <strlen>:
    8000059a:	87aa                	mv	a5,a0
    8000059c:	0007c703          	lbu	a4,0(a5)
    800005a0:	0785                	addi	a5,a5,1
    800005a2:	ff6d                	bnez	a4,8000059c <strlen+0x2>
    800005a4:	40a78533          	sub	a0,a5,a0
    800005a8:	157d                	addi	a0,a0,-1 # 10019fff <_start-0x6ffe6001>
    800005aa:	8082                	ret

Disassembly of section .text.__ssputs_r:

00000000800005ac <__ssputs_r>:
    800005ac:	7139                	addi	sp,sp,-64
    800005ae:	f04a                	sd	s2,32(sp)
    800005b0:	00c5a903          	lw	s2,12(a1)
    800005b4:	f822                	sd	s0,48(sp)
    800005b6:	ec4e                	sd	s3,24(sp)
    800005b8:	e456                	sd	s5,8(sp)
    800005ba:	fc06                	sd	ra,56(sp)
    800005bc:	f426                	sd	s1,40(sp)
    800005be:	e852                	sd	s4,16(sp)
    800005c0:	e05a                	sd	s6,0(sp)
    800005c2:	6198                	ld	a4,0(a1)
    800005c4:	842e                	mv	s0,a1
    800005c6:	8ab2                	mv	s5,a2
    800005c8:	89b6                	mv	s3,a3
    800005ca:	0726ed63          	bltu	a3,s2,80000644 <__ssputs_r+0x98>
    800005ce:	01059783          	lh	a5,16(a1)
    800005d2:	4807f693          	andi	a3,a5,1152
    800005d6:	c6ad                	beqz	a3,80000640 <__ssputs_r+0x94>
    800005d8:	5014                	lw	a3,32(s0)
    800005da:	448d                	li	s1,3
    800005dc:	6d8c                	ld	a1,24(a1)
    800005de:	02d484bb          	mulw	s1,s1,a3
    800005e2:	4689                	li	a3,2
    800005e4:	8f0d                	sub	a4,a4,a1
    800005e6:	00070b1b          	sext.w	s6,a4
    800005ea:	8a2a                	mv	s4,a0
    800005ec:	02d4c4bb          	divw	s1,s1,a3
    800005f0:	00198693          	addi	a3,s3,1
    800005f4:	96da                	add	a3,a3,s6
    800005f6:	00d4f563          	bgeu	s1,a3,80000600 <__ssputs_r+0x54>
    800005fa:	0019849b          	addiw	s1,s3,1
    800005fe:	9cb9                	addw	s1,s1,a4
    80000600:	4007f793          	andi	a5,a5,1024
    80000604:	cbad                	beqz	a5,80000676 <__ssputs_r+0xca>
    80000606:	85a6                	mv	a1,s1
    80000608:	8552                	mv	a0,s4
    8000060a:	12d000ef          	jal	ra,80000f36 <_malloc_r>
    8000060e:	892a                	mv	s2,a0
    80000610:	cd2d                	beqz	a0,8000068a <__ssputs_r+0xde>
    80000612:	6c0c                	ld	a1,24(s0)
    80000614:	865a                	mv	a2,s6
    80000616:	d01ff0ef          	jal	ra,80000316 <memcpy>
    8000061a:	01045783          	lhu	a5,16(s0)
    8000061e:	b7f7f793          	andi	a5,a5,-1153
    80000622:	0807e793          	ori	a5,a5,128
    80000626:	00f41823          	sh	a5,16(s0)
    8000062a:	01243c23          	sd	s2,24(s0)
    8000062e:	d004                	sw	s1,32(s0)
    80000630:	995a                	add	s2,s2,s6
    80000632:	416484bb          	subw	s1,s1,s6
    80000636:	01243023          	sd	s2,0(s0)
    8000063a:	c444                	sw	s1,12(s0)
    8000063c:	0009891b          	sext.w	s2,s3
    80000640:	0129f463          	bgeu	s3,s2,80000648 <__ssputs_r+0x9c>
    80000644:	0009891b          	sext.w	s2,s3
    80000648:	6008                	ld	a0,0(s0)
    8000064a:	864a                	mv	a2,s2
    8000064c:	85d6                	mv	a1,s5
    8000064e:	cdfff0ef          	jal	ra,8000032c <memmove>
    80000652:	445c                	lw	a5,12(s0)
    80000654:	4501                	li	a0,0
    80000656:	412787bb          	subw	a5,a5,s2
    8000065a:	c45c                	sw	a5,12(s0)
    8000065c:	601c                	ld	a5,0(s0)
    8000065e:	97ca                	add	a5,a5,s2
    80000660:	e01c                	sd	a5,0(s0)
    80000662:	70e2                	ld	ra,56(sp)
    80000664:	7442                	ld	s0,48(sp)
    80000666:	74a2                	ld	s1,40(sp)
    80000668:	7902                	ld	s2,32(sp)
    8000066a:	69e2                	ld	s3,24(sp)
    8000066c:	6a42                	ld	s4,16(sp)
    8000066e:	6aa2                	ld	s5,8(sp)
    80000670:	6b02                	ld	s6,0(sp)
    80000672:	6121                	addi	sp,sp,64
    80000674:	8082                	ret
    80000676:	8626                	mv	a2,s1
    80000678:	8552                	mv	a0,s4
    8000067a:	1db000ef          	jal	ra,80001054 <_realloc_r>
    8000067e:	892a                	mv	s2,a0
    80000680:	f54d                	bnez	a0,8000062a <__ssputs_r+0x7e>
    80000682:	6c0c                	ld	a1,24(s0)
    80000684:	8552                	mv	a0,s4
    80000686:	7b6000ef          	jal	ra,80000e3c <_free_r>
    8000068a:	47b1                	li	a5,12
    8000068c:	00fa2023          	sw	a5,0(s4)
    80000690:	01045783          	lhu	a5,16(s0)
    80000694:	557d                	li	a0,-1
    80000696:	0407e793          	ori	a5,a5,64
    8000069a:	00f41823          	sh	a5,16(s0)
    8000069e:	b7d1                	j	80000662 <__ssputs_r+0xb6>

Disassembly of section .text.__ssprint_r:

00000000800006a0 <__ssprint_r>:
    800006a0:	6a1c                	ld	a5,16(a2)
    800006a2:	711d                	addi	sp,sp,-96
    800006a4:	fc4e                	sd	s3,56(sp)
    800006a6:	f05a                	sd	s6,32(sp)
    800006a8:	ec86                	sd	ra,88(sp)
    800006aa:	e8a2                	sd	s0,80(sp)
    800006ac:	e4a6                	sd	s1,72(sp)
    800006ae:	e0ca                	sd	s2,64(sp)
    800006b0:	f852                	sd	s4,48(sp)
    800006b2:	f456                	sd	s5,40(sp)
    800006b4:	ec5e                	sd	s7,24(sp)
    800006b6:	e862                	sd	s8,16(sp)
    800006b8:	e466                	sd	s9,8(sp)
    800006ba:	e06a                	sd	s10,0(sp)
    800006bc:	00063b03          	ld	s6,0(a2)
    800006c0:	89b2                	mv	s3,a2
    800006c2:	eff9                	bnez	a5,800007a0 <__ssprint_r+0x100>
    800006c4:	4501                	li	a0,0
    800006c6:	60e6                	ld	ra,88(sp)
    800006c8:	6446                	ld	s0,80(sp)
    800006ca:	0009a423          	sw	zero,8(s3)
    800006ce:	64a6                	ld	s1,72(sp)
    800006d0:	6906                	ld	s2,64(sp)
    800006d2:	79e2                	ld	s3,56(sp)
    800006d4:	7a42                	ld	s4,48(sp)
    800006d6:	7aa2                	ld	s5,40(sp)
    800006d8:	7b02                	ld	s6,32(sp)
    800006da:	6be2                	ld	s7,24(sp)
    800006dc:	6c42                	ld	s8,16(sp)
    800006de:	6ca2                	ld	s9,8(sp)
    800006e0:	6d02                	ld	s10,0(sp)
    800006e2:	6125                	addi	sp,sp,96
    800006e4:	8082                	ret
    800006e6:	000b3a83          	ld	s5,0(s6)
    800006ea:	008b3d03          	ld	s10,8(s6)
    800006ee:	0b41                	addi	s6,s6,16
    800006f0:	00c42903          	lw	s2,12(s0)
    800006f4:	601c                	ld	a5,0(s0)
    800006f6:	fe0d08e3          	beqz	s10,800006e6 <__ssprint_r+0x46>
    800006fa:	072d6863          	bltu	s10,s2,8000076a <__ssprint_r+0xca>
    800006fe:	01041703          	lh	a4,16(s0)
    80000702:	48077693          	andi	a3,a4,1152
    80000706:	c2b5                	beqz	a3,8000076a <__ssprint_r+0xca>
    80000708:	5004                	lw	s1,32(s0)
    8000070a:	6c0c                	ld	a1,24(s0)
    8000070c:	029c04bb          	mulw	s1,s8,s1
    80000710:	8f8d                	sub	a5,a5,a1
    80000712:	00078b9b          	sext.w	s7,a5
    80000716:	001b8693          	addi	a3,s7,1
    8000071a:	96ea                	add	a3,a3,s10
    8000071c:	0394c4bb          	divw	s1,s1,s9
    80000720:	00d4f563          	bgeu	s1,a3,8000072a <__ssprint_r+0x8a>
    80000724:	2785                	addiw	a5,a5,1
    80000726:	01a784bb          	addw	s1,a5,s10
    8000072a:	40077713          	andi	a4,a4,1024
    8000072e:	c341                	beqz	a4,800007ae <__ssprint_r+0x10e>
    80000730:	85a6                	mv	a1,s1
    80000732:	8552                	mv	a0,s4
    80000734:	003000ef          	jal	ra,80000f36 <_malloc_r>
    80000738:	892a                	mv	s2,a0
    8000073a:	c541                	beqz	a0,800007c2 <__ssprint_r+0x122>
    8000073c:	6c0c                	ld	a1,24(s0)
    8000073e:	865e                	mv	a2,s7
    80000740:	bd7ff0ef          	jal	ra,80000316 <memcpy>
    80000744:	01045783          	lhu	a5,16(s0)
    80000748:	b7f7f793          	andi	a5,a5,-1153
    8000074c:	0807e793          	ori	a5,a5,128
    80000750:	00f41823          	sh	a5,16(s0)
    80000754:	01243c23          	sd	s2,24(s0)
    80000758:	d004                	sw	s1,32(s0)
    8000075a:	995e                	add	s2,s2,s7
    8000075c:	417484bb          	subw	s1,s1,s7
    80000760:	01243023          	sd	s2,0(s0)
    80000764:	c444                	sw	s1,12(s0)
    80000766:	000d091b          	sext.w	s2,s10
    8000076a:	000d049b          	sext.w	s1,s10
    8000076e:	012d7363          	bgeu	s10,s2,80000774 <__ssprint_r+0xd4>
    80000772:	8926                	mv	s2,s1
    80000774:	6008                	ld	a0,0(s0)
    80000776:	85d6                	mv	a1,s5
    80000778:	864a                	mv	a2,s2
    8000077a:	bb3ff0ef          	jal	ra,8000032c <memmove>
    8000077e:	445c                	lw	a5,12(s0)
    80000780:	9aa6                	add	s5,s5,s1
    80000782:	409d0d33          	sub	s10,s10,s1
    80000786:	412787bb          	subw	a5,a5,s2
    8000078a:	c45c                	sw	a5,12(s0)
    8000078c:	601c                	ld	a5,0(s0)
    8000078e:	97ca                	add	a5,a5,s2
    80000790:	e01c                	sd	a5,0(s0)
    80000792:	0109b783          	ld	a5,16(s3)
    80000796:	8f85                	sub	a5,a5,s1
    80000798:	00f9b823          	sd	a5,16(s3)
    8000079c:	fbb1                	bnez	a5,800006f0 <__ssprint_r+0x50>
    8000079e:	b71d                	j	800006c4 <__ssprint_r+0x24>
    800007a0:	8a2a                	mv	s4,a0
    800007a2:	842e                	mv	s0,a1
    800007a4:	4a81                	li	s5,0
    800007a6:	4d01                	li	s10,0
    800007a8:	4c0d                	li	s8,3
    800007aa:	4c89                	li	s9,2
    800007ac:	b791                	j	800006f0 <__ssprint_r+0x50>
    800007ae:	8626                	mv	a2,s1
    800007b0:	8552                	mv	a0,s4
    800007b2:	0a3000ef          	jal	ra,80001054 <_realloc_r>
    800007b6:	892a                	mv	s2,a0
    800007b8:	fd51                	bnez	a0,80000754 <__ssprint_r+0xb4>
    800007ba:	6c0c                	ld	a1,24(s0)
    800007bc:	8552                	mv	a0,s4
    800007be:	67e000ef          	jal	ra,80000e3c <_free_r>
    800007c2:	47b1                	li	a5,12
    800007c4:	00fa2023          	sw	a5,0(s4)
    800007c8:	01045783          	lhu	a5,16(s0)
    800007cc:	557d                	li	a0,-1
    800007ce:	0407e793          	ori	a5,a5,64
    800007d2:	00f41823          	sh	a5,16(s0)
    800007d6:	0009b823          	sd	zero,16(s3)
    800007da:	b5f5                	j	800006c6 <__ssprint_r+0x26>

Disassembly of section .text._svfprintf_r:

00000000800007dc <_svfiprintf_r>:
    800007dc:	0105d783          	lhu	a5,16(a1)
    800007e0:	7155                	addi	sp,sp,-208
    800007e2:	e1a2                	sd	s0,192(sp)
    800007e4:	fd26                	sd	s1,184(sp)
    800007e6:	f94a                	sd	s2,176(sp)
    800007e8:	f54e                	sd	s3,168(sp)
    800007ea:	f152                	sd	s4,160(sp)
    800007ec:	e586                	sd	ra,200(sp)
    800007ee:	ed56                	sd	s5,152(sp)
    800007f0:	e95a                	sd	s6,144(sp)
    800007f2:	e55e                	sd	s7,136(sp)
    800007f4:	e162                	sd	s8,128(sp)
    800007f6:	fce6                	sd	s9,120(sp)
    800007f8:	f8ea                	sd	s10,112(sp)
    800007fa:	0807f793          	andi	a5,a5,128
    800007fe:	8a2a                	mv	s4,a0
    80000800:	892e                	mv	s2,a1
    80000802:	84b2                	mv	s1,a2
    80000804:	8436                	mv	s0,a3
    80000806:	4981                	li	s3,0
    80000808:	c3b1                	beqz	a5,8000084c <_svfiprintf_r+0x70>
    8000080a:	6d9c                	ld	a5,24(a1)
    8000080c:	e3a1                	bnez	a5,8000084c <_svfiprintf_r+0x70>
    8000080e:	04000593          	li	a1,64
    80000812:	724000ef          	jal	ra,80000f36 <_malloc_r>
    80000816:	00a93023          	sd	a0,0(s2)
    8000081a:	00a93c23          	sd	a0,24(s2)
    8000081e:	e11d                	bnez	a0,80000844 <_svfiprintf_r+0x68>
    80000820:	47b1                	li	a5,12
    80000822:	00fa2023          	sw	a5,0(s4)
    80000826:	557d                	li	a0,-1
    80000828:	60ae                	ld	ra,200(sp)
    8000082a:	640e                	ld	s0,192(sp)
    8000082c:	74ea                	ld	s1,184(sp)
    8000082e:	794a                	ld	s2,176(sp)
    80000830:	79aa                	ld	s3,168(sp)
    80000832:	7a0a                	ld	s4,160(sp)
    80000834:	6aea                	ld	s5,152(sp)
    80000836:	6b4a                	ld	s6,144(sp)
    80000838:	6baa                	ld	s7,136(sp)
    8000083a:	6c0a                	ld	s8,128(sp)
    8000083c:	7ce6                	ld	s9,120(sp)
    8000083e:	7d46                	ld	s10,112(sp)
    80000840:	6169                	addi	sp,sp,208
    80000842:	8082                	ret
    80000844:	04000793          	li	a5,64
    80000848:	02f92023          	sw	a5,32(s2)
    8000084c:	02000793          	li	a5,32
    80000850:	02f104a3          	sb	a5,41(sp)
    80000854:	5afd                	li	s5,-1
    80000856:	03000793          	li	a5,48
    8000085a:	d202                	sw	zero,36(sp)
    8000085c:	02f10523          	sb	a5,42(sp)
    80000860:	e422                	sd	s0,8(sp)
    80000862:	02500b93          	li	s7,37
    80000866:	020a9c13          	slli	s8,s5,0x20
    8000086a:	00001b17          	auipc	s6,0x1
    8000086e:	aaeb0b13          	addi	s6,s6,-1362 # 80001318 <__errno+0xc4>
    80000872:	4c85                	li	s9,1
    80000874:	8426                	mv	s0,s1
    80000876:	00044783          	lbu	a5,0(s0)
    8000087a:	c399                	beqz	a5,80000880 <_svfiprintf_r+0xa4>
    8000087c:	09779c63          	bne	a5,s7,80000914 <_svfiprintf_r+0x138>
    80000880:	40940d3b          	subw	s10,s0,s1
    80000884:	000d0e63          	beqz	s10,800008a0 <_svfiprintf_r+0xc4>
    80000888:	86ea                	mv	a3,s10
    8000088a:	8626                	mv	a2,s1
    8000088c:	85ca                	mv	a1,s2
    8000088e:	8552                	mv	a0,s4
    80000890:	d1dff0ef          	jal	ra,800005ac <__ssputs_r>
    80000894:	1b550563          	beq	a0,s5,80000a3e <_svfiprintf_r+0x262>
    80000898:	5792                	lw	a5,36(sp)
    8000089a:	01a787bb          	addw	a5,a5,s10
    8000089e:	d23e                	sw	a5,36(sp)
    800008a0:	00044783          	lbu	a5,0(s0)
    800008a4:	18078d63          	beqz	a5,80000a3e <_svfiprintf_r+0x262>
    800008a8:	00140493          	addi	s1,s0,1
    800008ac:	e862                	sd	s8,16(sp)
    800008ae:	ec02                	sd	zero,24(sp)
    800008b0:	040109a3          	sb	zero,83(sp)
    800008b4:	d482                	sw	zero,104(sp)
    800008b6:	0004c583          	lbu	a1,0(s1)
    800008ba:	4615                	li	a2,5
    800008bc:	855a                	mv	a0,s6
    800008be:	564000ef          	jal	ra,80000e22 <memchr>
    800008c2:	47c2                	lw	a5,16(sp)
    800008c4:	00148413          	addi	s0,s1,1
    800008c8:	e921                	bnez	a0,80000918 <_svfiprintf_r+0x13c>
    800008ca:	0107f713          	andi	a4,a5,16
    800008ce:	c709                	beqz	a4,800008d8 <_svfiprintf_r+0xfc>
    800008d0:	02000713          	li	a4,32
    800008d4:	04e109a3          	sb	a4,83(sp)
    800008d8:	0087f713          	andi	a4,a5,8
    800008dc:	c709                	beqz	a4,800008e6 <_svfiprintf_r+0x10a>
    800008de:	02b00713          	li	a4,43
    800008e2:	04e109a3          	sb	a4,83(sp)
    800008e6:	0004c683          	lbu	a3,0(s1)
    800008ea:	02a00713          	li	a4,42
    800008ee:	02e68d63          	beq	a3,a4,80000928 <_svfiprintf_r+0x14c>
    800008f2:	47f2                	lw	a5,28(sp)
    800008f4:	8426                	mv	s0,s1
    800008f6:	4681                	li	a3,0
    800008f8:	4625                	li	a2,9
    800008fa:	4829                	li	a6,10
    800008fc:	00044703          	lbu	a4,0(s0)
    80000900:	00140513          	addi	a0,s0,1
    80000904:	fd07059b          	addiw	a1,a4,-48
    80000908:	872e                	mv	a4,a1
    8000090a:	06b67663          	bgeu	a2,a1,80000976 <_svfiprintf_r+0x19a>
    8000090e:	c68d                	beqz	a3,80000938 <_svfiprintf_r+0x15c>
    80000910:	ce3e                	sw	a5,28(sp)
    80000912:	a01d                	j	80000938 <_svfiprintf_r+0x15c>
    80000914:	0405                	addi	s0,s0,1
    80000916:	b785                	j	80000876 <_svfiprintf_r+0x9a>
    80000918:	41650533          	sub	a0,a0,s6
    8000091c:	00ac953b          	sllw	a0,s9,a0
    80000920:	8fc9                	or	a5,a5,a0
    80000922:	c83e                	sw	a5,16(sp)
    80000924:	84a2                	mv	s1,s0
    80000926:	bf41                	j	800008b6 <_svfiprintf_r+0xda>
    80000928:	6722                	ld	a4,8(sp)
    8000092a:	00870693          	addi	a3,a4,8
    8000092e:	4318                	lw	a4,0(a4)
    80000930:	e436                	sd	a3,8(sp)
    80000932:	02074b63          	bltz	a4,80000968 <_svfiprintf_r+0x18c>
    80000936:	ce3a                	sw	a4,28(sp)
    80000938:	00044703          	lbu	a4,0(s0)
    8000093c:	02e00793          	li	a5,46
    80000940:	06f71163          	bne	a4,a5,800009a2 <_svfiprintf_r+0x1c6>
    80000944:	00144703          	lbu	a4,1(s0)
    80000948:	02a00793          	li	a5,42
    8000094c:	02f71b63          	bne	a4,a5,80000982 <_svfiprintf_r+0x1a6>
    80000950:	67a2                	ld	a5,8(sp)
    80000952:	0409                	addi	s0,s0,2
    80000954:	00878713          	addi	a4,a5,8
    80000958:	e43a                	sd	a4,8(sp)
    8000095a:	4398                	lw	a4,0(a5)
    8000095c:	87ba                	mv	a5,a4
    8000095e:	00075363          	bgez	a4,80000964 <_svfiprintf_r+0x188>
    80000962:	57fd                	li	a5,-1
    80000964:	ca3e                	sw	a5,20(sp)
    80000966:	a835                	j	800009a2 <_svfiprintf_r+0x1c6>
    80000968:	40e0073b          	negw	a4,a4
    8000096c:	0027e793          	ori	a5,a5,2
    80000970:	ce3a                	sw	a4,28(sp)
    80000972:	c83e                	sw	a5,16(sp)
    80000974:	b7d1                	j	80000938 <_svfiprintf_r+0x15c>
    80000976:	02f807bb          	mulw	a5,a6,a5
    8000097a:	842a                	mv	s0,a0
    8000097c:	4685                	li	a3,1
    8000097e:	9fb9                	addw	a5,a5,a4
    80000980:	bfb5                	j	800008fc <_svfiprintf_r+0x120>
    80000982:	0405                	addi	s0,s0,1
    80000984:	ca02                	sw	zero,20(sp)
    80000986:	4681                	li	a3,0
    80000988:	4781                	li	a5,0
    8000098a:	4625                	li	a2,9
    8000098c:	4829                	li	a6,10
    8000098e:	00044703          	lbu	a4,0(s0)
    80000992:	00140513          	addi	a0,s0,1
    80000996:	fd07059b          	addiw	a1,a4,-48
    8000099a:	872e                	mv	a4,a1
    8000099c:	06b67c63          	bgeu	a2,a1,80000a14 <_svfiprintf_r+0x238>
    800009a0:	f2f1                	bnez	a3,80000964 <_svfiprintf_r+0x188>
    800009a2:	00044583          	lbu	a1,0(s0)
    800009a6:	460d                	li	a2,3
    800009a8:	00001517          	auipc	a0,0x1
    800009ac:	97850513          	addi	a0,a0,-1672 # 80001320 <__errno+0xcc>
    800009b0:	472000ef          	jal	ra,80000e22 <memchr>
    800009b4:	cd11                	beqz	a0,800009d0 <_svfiprintf_r+0x1f4>
    800009b6:	00001797          	auipc	a5,0x1
    800009ba:	96a78793          	addi	a5,a5,-1686 # 80001320 <__errno+0xcc>
    800009be:	8d1d                	sub	a0,a0,a5
    800009c0:	47c2                	lw	a5,16(sp)
    800009c2:	04000713          	li	a4,64
    800009c6:	00a7173b          	sllw	a4,a4,a0
    800009ca:	8fd9                	or	a5,a5,a4
    800009cc:	0405                	addi	s0,s0,1
    800009ce:	c83e                	sw	a5,16(sp)
    800009d0:	00044583          	lbu	a1,0(s0)
    800009d4:	4619                	li	a2,6
    800009d6:	00001517          	auipc	a0,0x1
    800009da:	95250513          	addi	a0,a0,-1710 # 80001328 <__errno+0xd4>
    800009de:	00140493          	addi	s1,s0,1
    800009e2:	02b10423          	sb	a1,40(sp)
    800009e6:	43c000ef          	jal	ra,80000e22 <memchr>
    800009ea:	c135                	beqz	a0,80000a4e <_svfiprintf_r+0x272>
    800009ec:	00000793          	li	a5,0
    800009f0:	eb85                	bnez	a5,80000a20 <_svfiprintf_r+0x244>
    800009f2:	4742                	lw	a4,16(sp)
    800009f4:	67a2                	ld	a5,8(sp)
    800009f6:	10077713          	andi	a4,a4,256
    800009fa:	00878693          	addi	a3,a5,8
    800009fe:	c709                	beqz	a4,80000a08 <_svfiprintf_r+0x22c>
    80000a00:	07bd                	addi	a5,a5,15
    80000a02:	9bc1                	andi	a5,a5,-16
    80000a04:	01078693          	addi	a3,a5,16
    80000a08:	e436                	sd	a3,8(sp)
    80000a0a:	5792                	lw	a5,36(sp)
    80000a0c:	013787bb          	addw	a5,a5,s3
    80000a10:	d23e                	sw	a5,36(sp)
    80000a12:	b58d                	j	80000874 <_svfiprintf_r+0x98>
    80000a14:	02f807bb          	mulw	a5,a6,a5
    80000a18:	842a                	mv	s0,a0
    80000a1a:	4685                	li	a3,1
    80000a1c:	9fb9                	addw	a5,a5,a4
    80000a1e:	bf85                	j	8000098e <_svfiprintf_r+0x1b2>
    80000a20:	0038                	addi	a4,sp,8
    80000a22:	00000697          	auipc	a3,0x0
    80000a26:	b8a68693          	addi	a3,a3,-1142 # 800005ac <__ssputs_r>
    80000a2a:	864a                	mv	a2,s2
    80000a2c:	080c                	addi	a1,sp,16
    80000a2e:	8552                	mv	a0,s4
    80000a30:	00000097          	auipc	ra,0x0
    80000a34:	000000e7          	jalr	zero # 0 <_start-0x80000000>
    80000a38:	89aa                	mv	s3,a0
    80000a3a:	fd5518e3          	bne	a0,s5,80000a0a <_svfiprintf_r+0x22e>
    80000a3e:	01095783          	lhu	a5,16(s2)
    80000a42:	0407f793          	andi	a5,a5,64
    80000a46:	de0790e3          	bnez	a5,80000826 <_svfiprintf_r+0x4a>
    80000a4a:	5512                	lw	a0,36(sp)
    80000a4c:	bbf1                	j	80000828 <_svfiprintf_r+0x4c>
    80000a4e:	0038                	addi	a4,sp,8
    80000a50:	00000697          	auipc	a3,0x0
    80000a54:	b5c68693          	addi	a3,a3,-1188 # 800005ac <__ssputs_r>
    80000a58:	864a                	mv	a2,s2
    80000a5a:	080c                	addi	a1,sp,16
    80000a5c:	8552                	mv	a0,s4
    80000a5e:	124000ef          	jal	ra,80000b82 <_printf_i>
    80000a62:	bfd9                	j	80000a38 <_svfiprintf_r+0x25c>

Disassembly of section .text._printf_common:

0000000080000a64 <_printf_common>:
    80000a64:	715d                	addi	sp,sp,-80
    80000a66:	f052                	sd	s4,32(sp)
    80000a68:	ec56                	sd	s5,24(sp)
    80000a6a:	8a36                	mv	s4,a3
    80000a6c:	8aba                	mv	s5,a4
    80000a6e:	4994                	lw	a3,16(a1)
    80000a70:	4598                	lw	a4,8(a1)
    80000a72:	e0a2                	sd	s0,64(sp)
    80000a74:	f84a                	sd	s2,48(sp)
    80000a76:	f44e                	sd	s3,40(sp)
    80000a78:	e486                	sd	ra,72(sp)
    80000a7a:	fc26                	sd	s1,56(sp)
    80000a7c:	e85a                	sd	s6,16(sp)
    80000a7e:	e45e                	sd	s7,8(sp)
    80000a80:	89aa                	mv	s3,a0
    80000a82:	842e                	mv	s0,a1
    80000a84:	8932                	mv	s2,a2
    80000a86:	87ba                	mv	a5,a4
    80000a88:	00e6c363          	blt	a3,a4,80000a8e <_printf_common+0x2a>
    80000a8c:	87b6                	mv	a5,a3
    80000a8e:	00f92023          	sw	a5,0(s2)
    80000a92:	04344703          	lbu	a4,67(s0)
    80000a96:	c701                	beqz	a4,80000a9e <_printf_common+0x3a>
    80000a98:	2785                	addiw	a5,a5,1
    80000a9a:	00f92023          	sw	a5,0(s2)
    80000a9e:	401c                	lw	a5,0(s0)
    80000aa0:	0207f793          	andi	a5,a5,32
    80000aa4:	c791                	beqz	a5,80000ab0 <_printf_common+0x4c>
    80000aa6:	00092783          	lw	a5,0(s2)
    80000aaa:	2789                	addiw	a5,a5,2
    80000aac:	00f92023          	sw	a5,0(s2)
    80000ab0:	4004                	lw	s1,0(s0)
    80000ab2:	8899                	andi	s1,s1,6
    80000ab4:	e891                	bnez	s1,80000ac8 <_printf_common+0x64>
    80000ab6:	01940b13          	addi	s6,s0,25
    80000aba:	5bfd                	li	s7,-1
    80000abc:	445c                	lw	a5,12(s0)
    80000abe:	00092703          	lw	a4,0(s2)
    80000ac2:	9f99                	subw	a5,a5,a4
    80000ac4:	06f4c063          	blt	s1,a5,80000b24 <_printf_common+0xc0>
    80000ac8:	04344783          	lbu	a5,67(s0)
    80000acc:	00f03633          	snez	a2,a5
    80000ad0:	00f036b3          	snez	a3,a5
    80000ad4:	401c                	lw	a5,0(s0)
    80000ad6:	0207f793          	andi	a5,a5,32
    80000ada:	ebb5                	bnez	a5,80000b4e <_printf_common+0xea>
    80000adc:	04340613          	addi	a2,s0,67
    80000ae0:	85d2                	mv	a1,s4
    80000ae2:	854e                	mv	a0,s3
    80000ae4:	9a82                	jalr	s5
    80000ae6:	57fd                	li	a5,-1
    80000ae8:	04f50563          	beq	a0,a5,80000b32 <_printf_common+0xce>
    80000aec:	401c                	lw	a5,0(s0)
    80000aee:	4711                	li	a4,4
    80000af0:	4481                	li	s1,0
    80000af2:	8b99                	andi	a5,a5,6
    80000af4:	00e79b63          	bne	a5,a4,80000b0a <_printf_common+0xa6>
    80000af8:	4444                	lw	s1,12(s0)
    80000afa:	00092783          	lw	a5,0(s2)
    80000afe:	40f487bb          	subw	a5,s1,a5
    80000b02:	84be                	mv	s1,a5
    80000b04:	0007d363          	bgez	a5,80000b0a <_printf_common+0xa6>
    80000b08:	4481                	li	s1,0
    80000b0a:	441c                	lw	a5,8(s0)
    80000b0c:	4818                	lw	a4,16(s0)
    80000b0e:	00f75463          	bge	a4,a5,80000b16 <_printf_common+0xb2>
    80000b12:	9f99                	subw	a5,a5,a4
    80000b14:	9cbd                	addw	s1,s1,a5
    80000b16:	4901                	li	s2,0
    80000b18:	0469                	addi	s0,s0,26
    80000b1a:	5b7d                	li	s6,-1
    80000b1c:	05249a63          	bne	s1,s2,80000b70 <_printf_common+0x10c>
    80000b20:	4501                	li	a0,0
    80000b22:	a809                	j	80000b34 <_printf_common+0xd0>
    80000b24:	4685                	li	a3,1
    80000b26:	865a                	mv	a2,s6
    80000b28:	85d2                	mv	a1,s4
    80000b2a:	854e                	mv	a0,s3
    80000b2c:	9a82                	jalr	s5
    80000b2e:	01751e63          	bne	a0,s7,80000b4a <_printf_common+0xe6>
    80000b32:	557d                	li	a0,-1
    80000b34:	60a6                	ld	ra,72(sp)
    80000b36:	6406                	ld	s0,64(sp)
    80000b38:	74e2                	ld	s1,56(sp)
    80000b3a:	7942                	ld	s2,48(sp)
    80000b3c:	79a2                	ld	s3,40(sp)
    80000b3e:	7a02                	ld	s4,32(sp)
    80000b40:	6ae2                	ld	s5,24(sp)
    80000b42:	6b42                	ld	s6,16(sp)
    80000b44:	6ba2                	ld	s7,8(sp)
    80000b46:	6161                	addi	sp,sp,80
    80000b48:	8082                	ret
    80000b4a:	2485                	addiw	s1,s1,1
    80000b4c:	bf85                	j	80000abc <_printf_common+0x58>
    80000b4e:	00d407b3          	add	a5,s0,a3
    80000b52:	03000693          	li	a3,48
    80000b56:	04d781a3          	sb	a3,67(a5)
    80000b5a:	0016071b          	addiw	a4,a2,1
    80000b5e:	0026069b          	addiw	a3,a2,2
    80000b62:	04544603          	lbu	a2,69(s0)
    80000b66:	00e407b3          	add	a5,s0,a4
    80000b6a:	04c781a3          	sb	a2,67(a5)
    80000b6e:	b7bd                	j	80000adc <_printf_common+0x78>
    80000b70:	4685                	li	a3,1
    80000b72:	8622                	mv	a2,s0
    80000b74:	85d2                	mv	a1,s4
    80000b76:	854e                	mv	a0,s3
    80000b78:	9a82                	jalr	s5
    80000b7a:	fb650ce3          	beq	a0,s6,80000b32 <_printf_common+0xce>
    80000b7e:	2905                	addiw	s2,s2,1
    80000b80:	bf71                	j	80000b1c <_printf_common+0xb8>

Disassembly of section .text._printf_i:

0000000080000b82 <_printf_i>:
    80000b82:	715d                	addi	sp,sp,-80
    80000b84:	e0a2                	sd	s0,64(sp)
    80000b86:	f84a                	sd	s2,48(sp)
    80000b88:	f44e                	sd	s3,40(sp)
    80000b8a:	f052                	sd	s4,32(sp)
    80000b8c:	e486                	sd	ra,72(sp)
    80000b8e:	fc26                	sd	s1,56(sp)
    80000b90:	ec56                	sd	s5,24(sp)
    80000b92:	e85a                	sd	s6,16(sp)
    80000b94:	0185c803          	lbu	a6,24(a1)
    80000b98:	07800793          	li	a5,120
    80000b9c:	892a                	mv	s2,a0
    80000b9e:	842e                	mv	s0,a1
    80000ba0:	89b2                	mv	s3,a2
    80000ba2:	8a36                	mv	s4,a3
    80000ba4:	0307e263          	bltu	a5,a6,80000bc8 <_printf_i+0x46>
    80000ba8:	06200793          	li	a5,98
    80000bac:	04358693          	addi	a3,a1,67
    80000bb0:	0307e163          	bltu	a5,a6,80000bd2 <_printf_i+0x50>
    80000bb4:	1e080163          	beqz	a6,80000d96 <_printf_i+0x214>
    80000bb8:	05800793          	li	a5,88
    80000bbc:	00000617          	auipc	a2,0x0
    80000bc0:	77460613          	addi	a2,a2,1908 # 80001330 <__errno+0xdc>
    80000bc4:	16f80063          	beq	a6,a5,80000d24 <_printf_i+0x1a2>
    80000bc8:	04240493          	addi	s1,s0,66
    80000bcc:	05040123          	sb	a6,66(s0)
    80000bd0:	a815                	j	80000c04 <_printf_i+0x82>
    80000bd2:	f9d8079b          	addiw	a5,a6,-99
    80000bd6:	0ff7f793          	zext.b	a5,a5
    80000bda:	4655                	li	a2,21
    80000bdc:	fef666e3          	bltu	a2,a5,80000bc8 <_printf_i+0x46>
    80000be0:	00000617          	auipc	a2,0x0
    80000be4:	77c60613          	addi	a2,a2,1916 # 8000135c <__errno+0x108>
    80000be8:	078a                	slli	a5,a5,0x2
    80000bea:	97b2                	add	a5,a5,a2
    80000bec:	439c                	lw	a5,0(a5)
    80000bee:	97b2                	add	a5,a5,a2
    80000bf0:	8782                	jr	a5
    80000bf2:	631c                	ld	a5,0(a4)
    80000bf4:	04258493          	addi	s1,a1,66
    80000bf8:	00878693          	addi	a3,a5,8
    80000bfc:	439c                	lw	a5,0(a5)
    80000bfe:	e314                	sd	a3,0(a4)
    80000c00:	04f58123          	sb	a5,66(a1)
    80000c04:	4785                	li	a5,1
    80000c06:	a2e1                	j	80000dce <_printf_i+0x24c>
    80000c08:	4190                	lw	a2,0(a1)
    80000c0a:	631c                	ld	a5,0(a4)
    80000c0c:	08067513          	andi	a0,a2,128
    80000c10:	00878593          	addi	a1,a5,8
    80000c14:	c139                	beqz	a0,80000c5a <_printf_i+0xd8>
    80000c16:	639c                	ld	a5,0(a5)
    80000c18:	e30c                	sd	a1,0(a4)
    80000c1a:	4058                	lw	a4,4(s0)
    80000c1c:	1407db63          	bgez	a5,80000d72 <_printf_i+0x1f0>
    80000c20:	02d00593          	li	a1,45
    80000c24:	04b401a3          	sb	a1,67(s0)
    80000c28:	c418                	sw	a4,8(s0)
    80000c2a:	04075263          	bgez	a4,80000c6e <_printf_i+0xec>
    80000c2e:	40f007b3          	neg	a5,a5
    80000c32:	00000617          	auipc	a2,0x0
    80000c36:	6fe60613          	addi	a2,a2,1790 # 80001330 <__errno+0xdc>
    80000c3a:	4829                	li	a6,10
    80000c3c:	84b6                	mv	s1,a3
    80000c3e:	0307f733          	remu	a4,a5,a6
    80000c42:	14fd                	addi	s1,s1,-1
    80000c44:	9732                	add	a4,a4,a2
    80000c46:	00074703          	lbu	a4,0(a4)
    80000c4a:	00e48023          	sb	a4,0(s1)
    80000c4e:	873e                	mv	a4,a5
    80000c50:	0307d7b3          	divu	a5,a5,a6
    80000c54:	ff0775e3          	bgeu	a4,a6,80000c3e <_printf_i+0xbc>
    80000c58:	a8a1                	j	80000cb0 <_printf_i+0x12e>
    80000c5a:	439c                	lw	a5,0(a5)
    80000c5c:	04067513          	andi	a0,a2,64
    80000c60:	e30c                	sd	a1,0(a4)
    80000c62:	dd45                	beqz	a0,80000c1a <_printf_i+0x98>
    80000c64:	0107979b          	slliw	a5,a5,0x10
    80000c68:	4107d79b          	sraiw	a5,a5,0x10
    80000c6c:	b77d                	j	80000c1a <_printf_i+0x98>
    80000c6e:	9a6d                	andi	a2,a2,-5
    80000c70:	c010                	sw	a2,0(s0)
    80000c72:	bf75                	j	80000c2e <_printf_i+0xac>
    80000c74:	4190                	lw	a2,0(a1)
    80000c76:	631c                	ld	a5,0(a4)
    80000c78:	08067513          	andi	a0,a2,128
    80000c7c:	00878593          	addi	a1,a5,8
    80000c80:	cd35                	beqz	a0,80000cfc <_printf_i+0x17a>
    80000c82:	639c                	ld	a5,0(a5)
    80000c84:	e30c                	sd	a1,0(a4)
    80000c86:	06f00713          	li	a4,111
    80000c8a:	00000617          	auipc	a2,0x0
    80000c8e:	6a660613          	addi	a2,a2,1702 # 80001330 <__errno+0xdc>
    80000c92:	0ce81e63          	bne	a6,a4,80000d6e <_printf_i+0x1ec>
    80000c96:	4821                	li	a6,8
    80000c98:	040401a3          	sb	zero,67(s0)
    80000c9c:	4058                	lw	a4,4(s0)
    80000c9e:	c418                	sw	a4,8(s0)
    80000ca0:	f8074ee3          	bltz	a4,80000c3c <_printf_i+0xba>
    80000ca4:	400c                	lw	a1,0(s0)
    80000ca6:	99ed                	andi	a1,a1,-5
    80000ca8:	c00c                	sw	a1,0(s0)
    80000caa:	fbc9                	bnez	a5,80000c3c <_printf_i+0xba>
    80000cac:	84b6                	mv	s1,a3
    80000cae:	f759                	bnez	a4,80000c3c <_printf_i+0xba>
    80000cb0:	47a1                	li	a5,8
    80000cb2:	00f81e63          	bne	a6,a5,80000cce <_printf_i+0x14c>
    80000cb6:	401c                	lw	a5,0(s0)
    80000cb8:	8b85                	andi	a5,a5,1
    80000cba:	cb91                	beqz	a5,80000cce <_printf_i+0x14c>
    80000cbc:	4058                	lw	a4,4(s0)
    80000cbe:	481c                	lw	a5,16(s0)
    80000cc0:	00e7c763          	blt	a5,a4,80000cce <_printf_i+0x14c>
    80000cc4:	03000793          	li	a5,48
    80000cc8:	fef48fa3          	sb	a5,-1(s1)
    80000ccc:	14fd                	addi	s1,s1,-1
    80000cce:	8e85                	sub	a3,a3,s1
    80000cd0:	c814                	sw	a3,16(s0)
    80000cd2:	8752                	mv	a4,s4
    80000cd4:	86ce                	mv	a3,s3
    80000cd6:	0070                	addi	a2,sp,12
    80000cd8:	85a2                	mv	a1,s0
    80000cda:	854a                	mv	a0,s2
    80000cdc:	d89ff0ef          	jal	ra,80000a64 <_printf_common>
    80000ce0:	5afd                	li	s5,-1
    80000ce2:	0f551a63          	bne	a0,s5,80000dd6 <_printf_i+0x254>
    80000ce6:	557d                	li	a0,-1
    80000ce8:	60a6                	ld	ra,72(sp)
    80000cea:	6406                	ld	s0,64(sp)
    80000cec:	74e2                	ld	s1,56(sp)
    80000cee:	7942                	ld	s2,48(sp)
    80000cf0:	79a2                	ld	s3,40(sp)
    80000cf2:	7a02                	ld	s4,32(sp)
    80000cf4:	6ae2                	ld	s5,24(sp)
    80000cf6:	6b42                	ld	s6,16(sp)
    80000cf8:	6161                	addi	sp,sp,80
    80000cfa:	8082                	ret
    80000cfc:	04067613          	andi	a2,a2,64
    80000d00:	e30c                	sd	a1,0(a4)
    80000d02:	c601                	beqz	a2,80000d0a <_printf_i+0x188>
    80000d04:	0007d783          	lhu	a5,0(a5)
    80000d08:	bfbd                	j	80000c86 <_printf_i+0x104>
    80000d0a:	0007e783          	lwu	a5,0(a5)
    80000d0e:	bfa5                	j	80000c86 <_printf_i+0x104>
    80000d10:	419c                	lw	a5,0(a1)
    80000d12:	0a07e793          	ori	a5,a5,160
    80000d16:	c19c                	sw	a5,0(a1)
    80000d18:	07800813          	li	a6,120
    80000d1c:	00000617          	auipc	a2,0x0
    80000d20:	62c60613          	addi	a2,a2,1580 # 80001348 <__errno+0xf4>
    80000d24:	050402a3          	sb	a6,69(s0)
    80000d28:	400c                	lw	a1,0(s0)
    80000d2a:	631c                	ld	a5,0(a4)
    80000d2c:	0805f813          	andi	a6,a1,128
    80000d30:	00878513          	addi	a0,a5,8
    80000d34:	00080d63          	beqz	a6,80000d4e <_printf_i+0x1cc>
    80000d38:	639c                	ld	a5,0(a5)
    80000d3a:	e308                	sd	a0,0(a4)
    80000d3c:	0015f713          	andi	a4,a1,1
    80000d40:	c701                	beqz	a4,80000d48 <_printf_i+0x1c6>
    80000d42:	0205e593          	ori	a1,a1,32
    80000d46:	c00c                	sw	a1,0(s0)
    80000d48:	cf91                	beqz	a5,80000d64 <_printf_i+0x1e2>
    80000d4a:	4841                	li	a6,16
    80000d4c:	b7b1                	j	80000c98 <_printf_i+0x116>
    80000d4e:	0405f813          	andi	a6,a1,64
    80000d52:	e308                	sd	a0,0(a4)
    80000d54:	00080563          	beqz	a6,80000d5e <_printf_i+0x1dc>
    80000d58:	0007d783          	lhu	a5,0(a5)
    80000d5c:	b7c5                	j	80000d3c <_printf_i+0x1ba>
    80000d5e:	0007e783          	lwu	a5,0(a5)
    80000d62:	bfe9                	j	80000d3c <_printf_i+0x1ba>
    80000d64:	4018                	lw	a4,0(s0)
    80000d66:	fdf77713          	andi	a4,a4,-33
    80000d6a:	c018                	sw	a4,0(s0)
    80000d6c:	bff9                	j	80000d4a <_printf_i+0x1c8>
    80000d6e:	4829                	li	a6,10
    80000d70:	b725                	j	80000c98 <_printf_i+0x116>
    80000d72:	00000617          	auipc	a2,0x0
    80000d76:	5be60613          	addi	a2,a2,1470 # 80001330 <__errno+0xdc>
    80000d7a:	4829                	li	a6,10
    80000d7c:	b705                	j	80000c9c <_printf_i+0x11a>
    80000d7e:	4190                	lw	a2,0(a1)
    80000d80:	631c                	ld	a5,0(a4)
    80000d82:	49cc                	lw	a1,20(a1)
    80000d84:	08067813          	andi	a6,a2,128
    80000d88:	00878513          	addi	a0,a5,8
    80000d8c:	00080963          	beqz	a6,80000d9e <_printf_i+0x21c>
    80000d90:	e308                	sd	a0,0(a4)
    80000d92:	639c                	ld	a5,0(a5)
    80000d94:	e38c                	sd	a1,0(a5)
    80000d96:	00042823          	sw	zero,16(s0)
    80000d9a:	84b6                	mv	s1,a3
    80000d9c:	bf1d                	j	80000cd2 <_printf_i+0x150>
    80000d9e:	e308                	sd	a0,0(a4)
    80000da0:	04067613          	andi	a2,a2,64
    80000da4:	639c                	ld	a5,0(a5)
    80000da6:	c601                	beqz	a2,80000dae <_printf_i+0x22c>
    80000da8:	00b79023          	sh	a1,0(a5)
    80000dac:	b7ed                	j	80000d96 <_printf_i+0x214>
    80000dae:	c38c                	sw	a1,0(a5)
    80000db0:	b7dd                	j	80000d96 <_printf_i+0x214>
    80000db2:	631c                	ld	a5,0(a4)
    80000db4:	41d0                	lw	a2,4(a1)
    80000db6:	4581                	li	a1,0
    80000db8:	00878693          	addi	a3,a5,8
    80000dbc:	e314                	sd	a3,0(a4)
    80000dbe:	6384                	ld	s1,0(a5)
    80000dc0:	8526                	mv	a0,s1
    80000dc2:	060000ef          	jal	ra,80000e22 <memchr>
    80000dc6:	c119                	beqz	a0,80000dcc <_printf_i+0x24a>
    80000dc8:	8d05                	sub	a0,a0,s1
    80000dca:	c048                	sw	a0,4(s0)
    80000dcc:	405c                	lw	a5,4(s0)
    80000dce:	c81c                	sw	a5,16(s0)
    80000dd0:	040401a3          	sb	zero,67(s0)
    80000dd4:	bdfd                	j	80000cd2 <_printf_i+0x150>
    80000dd6:	4814                	lw	a3,16(s0)
    80000dd8:	8626                	mv	a2,s1
    80000dda:	85ce                	mv	a1,s3
    80000ddc:	854a                	mv	a0,s2
    80000dde:	9a02                	jalr	s4
    80000de0:	f15503e3          	beq	a0,s5,80000ce6 <_printf_i+0x164>
    80000de4:	401c                	lw	a5,0(s0)
    80000de6:	8b89                	andi	a5,a5,2
    80000de8:	eb85                	bnez	a5,80000e18 <_printf_i+0x296>
    80000dea:	4458                	lw	a4,12(s0)
    80000dec:	47b2                	lw	a5,12(sp)
    80000dee:	0007051b          	sext.w	a0,a4
    80000df2:	eef75be3          	bge	a4,a5,80000ce8 <_printf_i+0x166>
    80000df6:	0007851b          	sext.w	a0,a5
    80000dfa:	b5fd                	j	80000ce8 <_printf_i+0x166>
    80000dfc:	4685                	li	a3,1
    80000dfe:	8656                	mv	a2,s5
    80000e00:	85ce                	mv	a1,s3
    80000e02:	854a                	mv	a0,s2
    80000e04:	9a02                	jalr	s4
    80000e06:	ef6500e3          	beq	a0,s6,80000ce6 <_printf_i+0x164>
    80000e0a:	2485                	addiw	s1,s1,1
    80000e0c:	445c                	lw	a5,12(s0)
    80000e0e:	4732                	lw	a4,12(sp)
    80000e10:	9f99                	subw	a5,a5,a4
    80000e12:	fef4c5e3          	blt	s1,a5,80000dfc <_printf_i+0x27a>
    80000e16:	bfd1                	j	80000dea <_printf_i+0x268>
    80000e18:	4481                	li	s1,0
    80000e1a:	01940a93          	addi	s5,s0,25
    80000e1e:	5b7d                	li	s6,-1
    80000e20:	b7f5                	j	80000e0c <_printf_i+0x28a>

Disassembly of section .text.memchr:

0000000080000e22 <memchr>:
    80000e22:	0ff5f593          	zext.b	a1,a1
    80000e26:	962a                	add	a2,a2,a0
    80000e28:	00c51463          	bne	a0,a2,80000e30 <memchr+0xe>
    80000e2c:	4501                	li	a0,0
    80000e2e:	8082                	ret
    80000e30:	00054783          	lbu	a5,0(a0)
    80000e34:	feb78de3          	beq	a5,a1,80000e2e <memchr+0xc>
    80000e38:	0505                	addi	a0,a0,1
    80000e3a:	b7fd                	j	80000e28 <memchr+0x6>

Disassembly of section .text._free_r:

0000000080000e3c <_free_r>:
    80000e3c:	cdd9                	beqz	a1,80000eda <_free_r+0x9e>
    80000e3e:	ff85b783          	ld	a5,-8(a1)
    80000e42:	1101                	addi	sp,sp,-32
    80000e44:	e822                	sd	s0,16(sp)
    80000e46:	ec06                	sd	ra,24(sp)
    80000e48:	ff858413          	addi	s0,a1,-8
    80000e4c:	0007d363          	bgez	a5,80000e52 <_free_r+0x16>
    80000e50:	943e                	add	s0,s0,a5
    80000e52:	e42a                	sd	a0,8(sp)
    80000e54:	2a4000ef          	jal	ra,800010f8 <__malloc_lock>
    80000e58:	84818713          	addi	a4,gp,-1976 # 800014b0 <__malloc_free_list>
    80000e5c:	631c                	ld	a5,0(a4)
    80000e5e:	6522                	ld	a0,8(sp)
    80000e60:	eb81                	bnez	a5,80000e70 <_free_r+0x34>
    80000e62:	00043423          	sd	zero,8(s0)
    80000e66:	e300                	sd	s0,0(a4)
    80000e68:	6442                	ld	s0,16(sp)
    80000e6a:	60e2                	ld	ra,24(sp)
    80000e6c:	6105                	addi	sp,sp,32
    80000e6e:	a471                	j	800010fa <__malloc_unlock>
    80000e70:	00f47d63          	bgeu	s0,a5,80000e8a <_free_r+0x4e>
    80000e74:	6010                	ld	a2,0(s0)
    80000e76:	00c406b3          	add	a3,s0,a2
    80000e7a:	00d79663          	bne	a5,a3,80000e86 <_free_r+0x4a>
    80000e7e:	6394                	ld	a3,0(a5)
    80000e80:	679c                	ld	a5,8(a5)
    80000e82:	96b2                	add	a3,a3,a2
    80000e84:	e014                	sd	a3,0(s0)
    80000e86:	e41c                	sd	a5,8(s0)
    80000e88:	bff9                	j	80000e66 <_free_r+0x2a>
    80000e8a:	873e                	mv	a4,a5
    80000e8c:	679c                	ld	a5,8(a5)
    80000e8e:	c399                	beqz	a5,80000e94 <_free_r+0x58>
    80000e90:	fef47de3          	bgeu	s0,a5,80000e8a <_free_r+0x4e>
    80000e94:	6314                	ld	a3,0(a4)
    80000e96:	00d70633          	add	a2,a4,a3
    80000e9a:	00861f63          	bne	a2,s0,80000eb8 <_free_r+0x7c>
    80000e9e:	6010                	ld	a2,0(s0)
    80000ea0:	96b2                	add	a3,a3,a2
    80000ea2:	e314                	sd	a3,0(a4)
    80000ea4:	00d70633          	add	a2,a4,a3
    80000ea8:	fcc790e3          	bne	a5,a2,80000e68 <_free_r+0x2c>
    80000eac:	6390                	ld	a2,0(a5)
    80000eae:	679c                	ld	a5,8(a5)
    80000eb0:	96b2                	add	a3,a3,a2
    80000eb2:	e314                	sd	a3,0(a4)
    80000eb4:	e71c                	sd	a5,8(a4)
    80000eb6:	bf4d                	j	80000e68 <_free_r+0x2c>
    80000eb8:	00c47563          	bgeu	s0,a2,80000ec2 <_free_r+0x86>
    80000ebc:	47b1                	li	a5,12
    80000ebe:	c11c                	sw	a5,0(a0)
    80000ec0:	b765                	j	80000e68 <_free_r+0x2c>
    80000ec2:	6010                	ld	a2,0(s0)
    80000ec4:	00c406b3          	add	a3,s0,a2
    80000ec8:	00d79663          	bne	a5,a3,80000ed4 <_free_r+0x98>
    80000ecc:	6394                	ld	a3,0(a5)
    80000ece:	679c                	ld	a5,8(a5)
    80000ed0:	96b2                	add	a3,a3,a2
    80000ed2:	e014                	sd	a3,0(s0)
    80000ed4:	e41c                	sd	a5,8(s0)
    80000ed6:	e700                	sd	s0,8(a4)
    80000ed8:	bf41                	j	80000e68 <_free_r+0x2c>
    80000eda:	8082                	ret

Disassembly of section .text.sbrk_aligned:

0000000080000edc <sbrk_aligned>:
    80000edc:	1101                	addi	sp,sp,-32
    80000ede:	e04a                	sd	s2,0(sp)
    80000ee0:	84018913          	addi	s2,gp,-1984 # 800014a8 <__malloc_sbrk_start>
    80000ee4:	00093783          	ld	a5,0(s2)
    80000ee8:	e822                	sd	s0,16(sp)
    80000eea:	e426                	sd	s1,8(sp)
    80000eec:	ec06                	sd	ra,24(sp)
    80000eee:	84aa                	mv	s1,a0
    80000ef0:	842e                	mv	s0,a1
    80000ef2:	e791                	bnez	a5,80000efe <sbrk_aligned+0x22>
    80000ef4:	4581                	li	a1,0
    80000ef6:	1da000ef          	jal	ra,800010d0 <_sbrk_r>
    80000efa:	00a93023          	sd	a0,0(s2)
    80000efe:	85a2                	mv	a1,s0
    80000f00:	8526                	mv	a0,s1
    80000f02:	1ce000ef          	jal	ra,800010d0 <_sbrk_r>
    80000f06:	597d                	li	s2,-1
    80000f08:	01251a63          	bne	a0,s2,80000f1c <sbrk_aligned+0x40>
    80000f0c:	547d                	li	s0,-1
    80000f0e:	60e2                	ld	ra,24(sp)
    80000f10:	8522                	mv	a0,s0
    80000f12:	6442                	ld	s0,16(sp)
    80000f14:	64a2                	ld	s1,8(sp)
    80000f16:	6902                	ld	s2,0(sp)
    80000f18:	6105                	addi	sp,sp,32
    80000f1a:	8082                	ret
    80000f1c:	00750413          	addi	s0,a0,7
    80000f20:	9861                	andi	s0,s0,-8
    80000f22:	fe8506e3          	beq	a0,s0,80000f0e <sbrk_aligned+0x32>
    80000f26:	40a405b3          	sub	a1,s0,a0
    80000f2a:	8526                	mv	a0,s1
    80000f2c:	1a4000ef          	jal	ra,800010d0 <_sbrk_r>
    80000f30:	fd251fe3          	bne	a0,s2,80000f0e <sbrk_aligned+0x32>
    80000f34:	bfe1                	j	80000f0c <sbrk_aligned+0x30>

Disassembly of section .text._malloc_r:

0000000080000f36 <_malloc_r>:
    80000f36:	00758793          	addi	a5,a1,7
    80000f3a:	7179                	addi	sp,sp,-48
    80000f3c:	9be1                	andi	a5,a5,-8
    80000f3e:	ec26                	sd	s1,24(sp)
    80000f40:	e84a                	sd	s2,16(sp)
    80000f42:	f406                	sd	ra,40(sp)
    80000f44:	f022                	sd	s0,32(sp)
    80000f46:	e44e                	sd	s3,8(sp)
    80000f48:	07a1                	addi	a5,a5,8
    80000f4a:	4741                	li	a4,16
    80000f4c:	892a                	mv	s2,a0
    80000f4e:	44c1                	li	s1,16
    80000f50:	00e7e363          	bltu	a5,a4,80000f56 <_malloc_r+0x20>
    80000f54:	84be                	mv	s1,a5
    80000f56:	80000737          	lui	a4,0x80000
    80000f5a:	fff74713          	not	a4,a4
    80000f5e:	00f76463          	bltu	a4,a5,80000f66 <_malloc_r+0x30>
    80000f62:	00b4fd63          	bgeu	s1,a1,80000f7c <_malloc_r+0x46>
    80000f66:	47b1                	li	a5,12
    80000f68:	00f92023          	sw	a5,0(s2)
    80000f6c:	4501                	li	a0,0
    80000f6e:	70a2                	ld	ra,40(sp)
    80000f70:	7402                	ld	s0,32(sp)
    80000f72:	64e2                	ld	s1,24(sp)
    80000f74:	6942                	ld	s2,16(sp)
    80000f76:	69a2                	ld	s3,8(sp)
    80000f78:	6145                	addi	sp,sp,48
    80000f7a:	8082                	ret
    80000f7c:	854a                	mv	a0,s2
    80000f7e:	17a000ef          	jal	ra,800010f8 <__malloc_lock>
    80000f82:	84818993          	addi	s3,gp,-1976 # 800014b0 <__malloc_free_list>
    80000f86:	0009b783          	ld	a5,0(s3)
    80000f8a:	843e                	mv	s0,a5
    80000f8c:	e831                	bnez	s0,80000fe0 <_malloc_r+0xaa>
    80000f8e:	85a6                	mv	a1,s1
    80000f90:	854a                	mv	a0,s2
    80000f92:	f4bff0ef          	jal	ra,80000edc <sbrk_aligned>
    80000f96:	57fd                	li	a5,-1
    80000f98:	842a                	mv	s0,a0
    80000f9a:	0af51b63          	bne	a0,a5,80001050 <_malloc_r+0x11a>
    80000f9e:	0009b403          	ld	s0,0(s3)
    80000fa2:	87a2                	mv	a5,s0
    80000fa4:	efc1                	bnez	a5,8000103c <_malloc_r+0x106>
    80000fa6:	00043983          	ld	s3,0(s0)
    80000faa:	4581                	li	a1,0
    80000fac:	854a                	mv	a0,s2
    80000fae:	99a2                	add	s3,s3,s0
    80000fb0:	120000ef          	jal	ra,800010d0 <_sbrk_r>
    80000fb4:	08a99763          	bne	s3,a0,80001042 <_malloc_r+0x10c>
    80000fb8:	601c                	ld	a5,0(s0)
    80000fba:	049d                	addi	s1,s1,7
    80000fbc:	8c9d                	sub	s1,s1,a5
    80000fbe:	98e1                	andi	s1,s1,-8
    80000fc0:	04a1                	addi	s1,s1,8
    80000fc2:	47c1                	li	a5,16
    80000fc4:	00f4f363          	bgeu	s1,a5,80000fca <_malloc_r+0x94>
    80000fc8:	44c1                	li	s1,16
    80000fca:	85a6                	mv	a1,s1
    80000fcc:	854a                	mv	a0,s2
    80000fce:	f0fff0ef          	jal	ra,80000edc <sbrk_aligned>
    80000fd2:	57fd                	li	a5,-1
    80000fd4:	06f50763          	beq	a0,a5,80001042 <_malloc_r+0x10c>
    80000fd8:	601c                	ld	a5,0(s0)
    80000fda:	97a6                	add	a5,a5,s1
    80000fdc:	e01c                	sd	a5,0(s0)
    80000fde:	a015                	j	80001002 <_malloc_r+0xcc>
    80000fe0:	6014                	ld	a3,0(s0)
    80000fe2:	9e85                	subw	a3,a3,s1
    80000fe4:	0406c963          	bltz	a3,80001036 <_malloc_r+0x100>
    80000fe8:	473d                	li	a4,15
    80000fea:	02d75e63          	bge	a4,a3,80001026 <_malloc_r+0xf0>
    80000fee:	e004                	sd	s1,0(s0)
    80000ff0:	00940733          	add	a4,s0,s1
    80000ff4:	02879763          	bne	a5,s0,80001022 <_malloc_r+0xec>
    80000ff8:	00e9b023          	sd	a4,0(s3)
    80000ffc:	641c                	ld	a5,8(s0)
    80000ffe:	e314                	sd	a3,0(a4)
    80001000:	e71c                	sd	a5,8(a4)
    80001002:	854a                	mv	a0,s2
    80001004:	0f6000ef          	jal	ra,800010fa <__malloc_unlock>
    80001008:	00f40513          	addi	a0,s0,15
    8000100c:	00840793          	addi	a5,s0,8
    80001010:	9961                	andi	a0,a0,-8
    80001012:	40f507bb          	subw	a5,a0,a5
    80001016:	dfa1                	beqz	a5,80000f6e <_malloc_r+0x38>
    80001018:	943e                	add	s0,s0,a5
    8000101a:	40f007bb          	negw	a5,a5
    8000101e:	e01c                	sd	a5,0(s0)
    80001020:	b7b9                	j	80000f6e <_malloc_r+0x38>
    80001022:	e798                	sd	a4,8(a5)
    80001024:	bfe1                	j	80000ffc <_malloc_r+0xc6>
    80001026:	6418                	ld	a4,8(s0)
    80001028:	00879563          	bne	a5,s0,80001032 <_malloc_r+0xfc>
    8000102c:	00e9b023          	sd	a4,0(s3)
    80001030:	bfc9                	j	80001002 <_malloc_r+0xcc>
    80001032:	e798                	sd	a4,8(a5)
    80001034:	b7f9                	j	80001002 <_malloc_r+0xcc>
    80001036:	87a2                	mv	a5,s0
    80001038:	6400                	ld	s0,8(s0)
    8000103a:	bf89                	j	80000f8c <_malloc_r+0x56>
    8000103c:	843e                	mv	s0,a5
    8000103e:	679c                	ld	a5,8(a5)
    80001040:	b795                	j	80000fa4 <_malloc_r+0x6e>
    80001042:	47b1                	li	a5,12
    80001044:	00f92023          	sw	a5,0(s2)
    80001048:	854a                	mv	a0,s2
    8000104a:	0b0000ef          	jal	ra,800010fa <__malloc_unlock>
    8000104e:	bf39                	j	80000f6c <_malloc_r+0x36>
    80001050:	e104                	sd	s1,0(a0)
    80001052:	bf45                	j	80001002 <_malloc_r+0xcc>

Disassembly of section .text._realloc_r:

0000000080001054 <_realloc_r>:
    80001054:	7179                	addi	sp,sp,-48
    80001056:	f022                	sd	s0,32(sp)
    80001058:	f406                	sd	ra,40(sp)
    8000105a:	ec26                	sd	s1,24(sp)
    8000105c:	e84a                	sd	s2,16(sp)
    8000105e:	e44e                	sd	s3,8(sp)
    80001060:	e052                	sd	s4,0(sp)
    80001062:	8432                	mv	s0,a2
    80001064:	e991                	bnez	a1,80001078 <_realloc_r+0x24>
    80001066:	7402                	ld	s0,32(sp)
    80001068:	70a2                	ld	ra,40(sp)
    8000106a:	64e2                	ld	s1,24(sp)
    8000106c:	6942                	ld	s2,16(sp)
    8000106e:	69a2                	ld	s3,8(sp)
    80001070:	6a02                	ld	s4,0(sp)
    80001072:	85b2                	mv	a1,a2
    80001074:	6145                	addi	sp,sp,48
    80001076:	b5c1                	j	80000f36 <_malloc_r>
    80001078:	ee09                	bnez	a2,80001092 <_realloc_r+0x3e>
    8000107a:	dc3ff0ef          	jal	ra,80000e3c <_free_r>
    8000107e:	4481                	li	s1,0
    80001080:	70a2                	ld	ra,40(sp)
    80001082:	7402                	ld	s0,32(sp)
    80001084:	6942                	ld	s2,16(sp)
    80001086:	69a2                	ld	s3,8(sp)
    80001088:	6a02                	ld	s4,0(sp)
    8000108a:	8526                	mv	a0,s1
    8000108c:	64e2                	ld	s1,24(sp)
    8000108e:	6145                	addi	sp,sp,48
    80001090:	8082                	ret
    80001092:	8a2a                	mv	s4,a0
    80001094:	84ae                	mv	s1,a1
    80001096:	066000ef          	jal	ra,800010fc <_malloc_usable_size_r>
    8000109a:	892a                	mv	s2,a0
    8000109c:	00856663          	bltu	a0,s0,800010a8 <_realloc_r+0x54>
    800010a0:	00155793          	srli	a5,a0,0x1
    800010a4:	fc87eee3          	bltu	a5,s0,80001080 <_realloc_r+0x2c>
    800010a8:	85a2                	mv	a1,s0
    800010aa:	8552                	mv	a0,s4
    800010ac:	e8bff0ef          	jal	ra,80000f36 <_malloc_r>
    800010b0:	89aa                	mv	s3,a0
    800010b2:	d571                	beqz	a0,8000107e <_realloc_r+0x2a>
    800010b4:	8622                	mv	a2,s0
    800010b6:	00897363          	bgeu	s2,s0,800010bc <_realloc_r+0x68>
    800010ba:	864a                	mv	a2,s2
    800010bc:	85a6                	mv	a1,s1
    800010be:	854e                	mv	a0,s3
    800010c0:	a56ff0ef          	jal	ra,80000316 <memcpy>
    800010c4:	85a6                	mv	a1,s1
    800010c6:	8552                	mv	a0,s4
    800010c8:	d75ff0ef          	jal	ra,80000e3c <_free_r>
    800010cc:	84ce                	mv	s1,s3
    800010ce:	bf4d                	j	80001080 <_realloc_r+0x2c>

Disassembly of section .text._sbrk_r:

00000000800010d0 <_sbrk_r>:
    800010d0:	1141                	addi	sp,sp,-16
    800010d2:	e022                	sd	s0,0(sp)
    800010d4:	842a                	mv	s0,a0
    800010d6:	852e                	mv	a0,a1
    800010d8:	8401a823          	sw	zero,-1968(gp) # 800014b8 <errno>
    800010dc:	e406                	sd	ra,8(sp)
    800010de:	12e000ef          	jal	ra,8000120c <_sbrk>
    800010e2:	57fd                	li	a5,-1
    800010e4:	00f51663          	bne	a0,a5,800010f0 <_sbrk_r+0x20>
    800010e8:	8501a783          	lw	a5,-1968(gp) # 800014b8 <errno>
    800010ec:	c391                	beqz	a5,800010f0 <_sbrk_r+0x20>
    800010ee:	c01c                	sw	a5,0(s0)
    800010f0:	60a2                	ld	ra,8(sp)
    800010f2:	6402                	ld	s0,0(sp)
    800010f4:	0141                	addi	sp,sp,16
    800010f6:	8082                	ret

Disassembly of section .text.__malloc_lock:

00000000800010f8 <__malloc_lock>:
    800010f8:	8082                	ret

Disassembly of section .text.__malloc_unlock:

00000000800010fa <__malloc_unlock>:
    800010fa:	8082                	ret

Disassembly of section .text._malloc_usable_size_r:

00000000800010fc <_malloc_usable_size_r>:
    800010fc:	ff85b503          	ld	a0,-8(a1)
    80001100:	0005079b          	sext.w	a5,a0
    80001104:	1561                	addi	a0,a0,-8
    80001106:	0007d663          	bgez	a5,80001112 <_malloc_usable_size_r+0x16>
    8000110a:	95aa                	add	a1,a1,a0
    8000110c:	6188                	ld	a0,0(a1)
    8000110e:	17e1                	addi	a5,a5,-8
    80001110:	953e                	add	a0,a0,a5
    80001112:	8082                	ret

Disassembly of section .text.cleanup_glue:

0000000080001114 <cleanup_glue>:
    80001114:	1101                	addi	sp,sp,-32
    80001116:	e822                	sd	s0,16(sp)
    80001118:	842e                	mv	s0,a1
    8000111a:	618c                	ld	a1,0(a1)
    8000111c:	e426                	sd	s1,8(sp)
    8000111e:	ec06                	sd	ra,24(sp)
    80001120:	84aa                	mv	s1,a0
    80001122:	c199                	beqz	a1,80001128 <cleanup_glue+0x14>
    80001124:	ff1ff0ef          	jal	ra,80001114 <cleanup_glue>
    80001128:	85a2                	mv	a1,s0
    8000112a:	6442                	ld	s0,16(sp)
    8000112c:	60e2                	ld	ra,24(sp)
    8000112e:	8526                	mv	a0,s1
    80001130:	64a2                	ld	s1,8(sp)
    80001132:	6105                	addi	sp,sp,32
    80001134:	b321                	j	80000e3c <_free_r>

Disassembly of section .text._reclaim_reent:

0000000080001136 <_reclaim_reent>:
    80001136:	8301b783          	ld	a5,-2000(gp) # 80001498 <_impure_ptr>
    8000113a:	0ca78863          	beq	a5,a0,8000120a <_reclaim_reent+0xd4>
    8000113e:	613c                	ld	a5,64(a0)
    80001140:	7179                	addi	sp,sp,-48
    80001142:	f022                	sd	s0,32(sp)
    80001144:	f406                	sd	ra,40(sp)
    80001146:	ec26                	sd	s1,24(sp)
    80001148:	e84a                	sd	s2,16(sp)
    8000114a:	e44e                	sd	s3,8(sp)
    8000114c:	842a                	mv	s0,a0
    8000114e:	cb8d                	beqz	a5,80001180 <_reclaim_reent+0x4a>
    80001150:	6f9c                	ld	a5,24(a5)
    80001152:	c38d                	beqz	a5,80001174 <_reclaim_reent+0x3e>
    80001154:	4481                	li	s1,0
    80001156:	20000913          	li	s2,512
    8000115a:	603c                	ld	a5,64(s0)
    8000115c:	6f9c                	ld	a5,24(a5)
    8000115e:	97a6                	add	a5,a5,s1
    80001160:	638c                	ld	a1,0(a5)
    80001162:	e5d1                	bnez	a1,800011ee <_reclaim_reent+0xb8>
    80001164:	04a1                	addi	s1,s1,8
    80001166:	ff249ae3          	bne	s1,s2,8000115a <_reclaim_reent+0x24>
    8000116a:	603c                	ld	a5,64(s0)
    8000116c:	8522                	mv	a0,s0
    8000116e:	6f8c                	ld	a1,24(a5)
    80001170:	ccdff0ef          	jal	ra,80000e3c <_free_r>
    80001174:	603c                	ld	a5,64(s0)
    80001176:	638c                	ld	a1,0(a5)
    80001178:	c581                	beqz	a1,80001180 <_reclaim_reent+0x4a>
    8000117a:	8522                	mv	a0,s0
    8000117c:	cc1ff0ef          	jal	ra,80000e3c <_free_r>
    80001180:	740c                	ld	a1,40(s0)
    80001182:	c581                	beqz	a1,8000118a <_reclaim_reent+0x54>
    80001184:	8522                	mv	a0,s0
    80001186:	cb7ff0ef          	jal	ra,80000e3c <_free_r>
    8000118a:	602c                	ld	a1,64(s0)
    8000118c:	c581                	beqz	a1,80001194 <_reclaim_reent+0x5e>
    8000118e:	8522                	mv	a0,s0
    80001190:	cadff0ef          	jal	ra,80000e3c <_free_r>
    80001194:	702c                	ld	a1,96(s0)
    80001196:	c581                	beqz	a1,8000119e <_reclaim_reent+0x68>
    80001198:	8522                	mv	a0,s0
    8000119a:	ca3ff0ef          	jal	ra,80000e3c <_free_r>
    8000119e:	742c                	ld	a1,104(s0)
    800011a0:	c581                	beqz	a1,800011a8 <_reclaim_reent+0x72>
    800011a2:	8522                	mv	a0,s0
    800011a4:	c99ff0ef          	jal	ra,80000e3c <_free_r>
    800011a8:	782c                	ld	a1,112(s0)
    800011aa:	c581                	beqz	a1,800011b2 <_reclaim_reent+0x7c>
    800011ac:	8522                	mv	a0,s0
    800011ae:	c8fff0ef          	jal	ra,80000e3c <_free_r>
    800011b2:	744c                	ld	a1,168(s0)
    800011b4:	c581                	beqz	a1,800011bc <_reclaim_reent+0x86>
    800011b6:	8522                	mv	a0,s0
    800011b8:	c85ff0ef          	jal	ra,80000e3c <_free_r>
    800011bc:	704c                	ld	a1,160(s0)
    800011be:	c581                	beqz	a1,800011c6 <_reclaim_reent+0x90>
    800011c0:	8522                	mv	a0,s0
    800011c2:	c7bff0ef          	jal	ra,80000e3c <_free_r>
    800011c6:	6c2c                	ld	a1,88(s0)
    800011c8:	c581                	beqz	a1,800011d0 <_reclaim_reent+0x9a>
    800011ca:	8522                	mv	a0,s0
    800011cc:	c71ff0ef          	jal	ra,80000e3c <_free_r>
    800011d0:	581c                	lw	a5,48(s0)
    800011d2:	c78d                	beqz	a5,800011fc <_reclaim_reent+0xc6>
    800011d4:	643c                	ld	a5,72(s0)
    800011d6:	8522                	mv	a0,s0
    800011d8:	9782                	jalr	a5
    800011da:	604c                	ld	a1,128(s0)
    800011dc:	c185                	beqz	a1,800011fc <_reclaim_reent+0xc6>
    800011de:	8522                	mv	a0,s0
    800011e0:	7402                	ld	s0,32(sp)
    800011e2:	70a2                	ld	ra,40(sp)
    800011e4:	64e2                	ld	s1,24(sp)
    800011e6:	6942                	ld	s2,16(sp)
    800011e8:	69a2                	ld	s3,8(sp)
    800011ea:	6145                	addi	sp,sp,48
    800011ec:	b725                	j	80001114 <cleanup_glue>
    800011ee:	0005b983          	ld	s3,0(a1)
    800011f2:	8522                	mv	a0,s0
    800011f4:	c49ff0ef          	jal	ra,80000e3c <_free_r>
    800011f8:	85ce                	mv	a1,s3
    800011fa:	b7a5                	j	80001162 <_reclaim_reent+0x2c>
    800011fc:	70a2                	ld	ra,40(sp)
    800011fe:	7402                	ld	s0,32(sp)
    80001200:	64e2                	ld	s1,24(sp)
    80001202:	6942                	ld	s2,16(sp)
    80001204:	69a2                	ld	s3,8(sp)
    80001206:	6145                	addi	sp,sp,48
    80001208:	8082                	ret
    8000120a:	8082                	ret

Disassembly of section .text._sbrk:

000000008000120c <_sbrk>:
    8000120c:	85818693          	addi	a3,gp,-1960 # 800014c0 <heap_end.0>
    80001210:	6298                	ld	a4,0(a3)
    80001212:	1141                	addi	sp,sp,-16
    80001214:	e406                	sd	ra,8(sp)
    80001216:	87aa                	mv	a5,a0
    80001218:	e315                	bnez	a4,8000123c <_sbrk+0x30>
    8000121a:	0d600893          	li	a7,214
    8000121e:	4501                	li	a0,0
    80001220:	00000073          	ecall
    80001224:	577d                	li	a4,-1
    80001226:	00e51a63          	bne	a0,a4,8000123a <_sbrk+0x2e>
    8000122a:	02a000ef          	jal	ra,80001254 <__errno>
    8000122e:	47b1                	li	a5,12
    80001230:	c11c                	sw	a5,0(a0)
    80001232:	557d                	li	a0,-1
    80001234:	60a2                	ld	ra,8(sp)
    80001236:	0141                	addi	sp,sp,16
    80001238:	8082                	ret
    8000123a:	e288                	sd	a0,0(a3)
    8000123c:	6298                	ld	a4,0(a3)
    8000123e:	0d600893          	li	a7,214
    80001242:	97ba                	add	a5,a5,a4
    80001244:	853e                	mv	a0,a5
    80001246:	00000073          	ecall
    8000124a:	fef510e3          	bne	a0,a5,8000122a <_sbrk+0x1e>
    8000124e:	e288                	sd	a0,0(a3)
    80001250:	853a                	mv	a0,a4
    80001252:	b7cd                	j	80001234 <_sbrk+0x28>

Disassembly of section .text.__errno:

0000000080001254 <__errno>:
    80001254:	8301b503          	ld	a0,-2000(gp) # 80001498 <_impure_ptr>
    80001258:	8082                	ret

Disassembly of section .rodata.str1.8:

0000000080001260 <.rodata.str1.8>:
    80001260:	4d754353          	.4byte	0x4d754353
    80001264:	562d                	li	a2,-21
    80001266:	3232                	fld	ft4,296(sp)
    80001268:	7320                	ld	s0,96(a4)
    8000126a:	7961                	lui	s2,0xffff8
    8000126c:	27202c73          	csrr	s8,0x272
    80001270:	2749                	addiw	a4,a4,18 # ffffffff80000012 <__global_pointer$+0xfffffffeffffe3aa>
    80001272:	206d                	.2byte	0x206d
    80001274:	6c61                	lui	s8,0x18
    80001276:	7669                	lui	a2,0xffffa
    80001278:	2165                	addiw	sp,sp,25
    8000127a:	000a0d27          	.4byte	0xa0d27
    8000127e:	0000                	unimp
    80001280:	6e49                	lui	t3,0x12
    80001282:	6574                	ld	a3,200(a0)
    80001284:	20726567          	.4byte	0x20726567
    80001288:	6944                	ld	s1,144(a0)
    8000128a:	6976                	ld	s2,344(sp)
    8000128c:	6564                	ld	s1,200(a0)
    8000128e:	2072                	fld	ft0,280(sp)
    80001290:	6425                	lui	s0,0x9
    80001292:	2f20                	fld	fs0,88(a4)
    80001294:	2520                	fld	fs0,72(a0)
    80001296:	2064                	fld	fs1,192(s0)
    80001298:	203d                	.2byte	0x203d
    8000129a:	6425                	lui	s0,0x9
    8000129c:	0a0d                	addi	s4,s4,3
    8000129e:	0000                	unimp
    800012a0:	6c46                	ld	s8,80(sp)
    800012a2:	6974616f          	jal	sp,80048138 <__global_pointer$+0x464d0>
    800012a6:	676e                	ld	a4,216(sp)
    800012a8:	5020                	lw	s0,96(s0)
    800012aa:	746e696f          	jal	s2,800e79f0 <__global_pointer$+0xe5d88>
    800012ae:	4420                	lw	s0,72(s0)
    800012b0:	7669                	lui	a2,0xffffa
    800012b2:	6469                	lui	s0,0x1a
    800012b4:	7265                	lui	tp,0xffff9
    800012b6:	2520                	fld	fs0,72(a0)
    800012b8:	2066                	fld	ft0,88(sp)
    800012ba:	6625202f          	amoand.w.aqrl	zero,sp,(a0)
    800012be:	3d20                	fld	fs0,120(a0)
    800012c0:	2520                	fld	fs0,72(a0)
    800012c2:	0d66                	slli	s10,s10,0x19
    800012c4:	000a                	c.slli	zero,0x2
    800012c6:	0000                	unimp
    800012c8:	6366                	ld	t1,88(sp)
    800012ca:	3d207273          	csrrci	tp,0x3d2,0
    800012ce:	2520                	fld	fs0,72(a0)
    800012d0:	786c                	ld	a1,240(s0)
    800012d2:	0a0d                	addi	s4,s4,3
    800012d4:	0000                	unimp
    800012d6:	0000                	unimp
    800012d8:	5349                	li	t1,-14
    800012da:	2041                	.2byte	0x2041
    800012dc:	7865                	lui	a6,0xffff9
    800012de:	6574                	ld	a3,200(a0)
    800012e0:	736e                	ld	t1,248(sp)
    800012e2:	6f69                	lui	t5,0x1a
    800012e4:	206e                	fld	ft0,216(sp)
    800012e6:	203d                	.2byte	0x203d
    800012e8:	6c25                	lui	s8,0x9
    800012ea:	0d78                	addi	a4,sp,668
    800012ec:	000a                	c.slli	zero,0x2
    800012ee:	0000                	unimp
    800012f0:	7241                	lui	tp,0xffff0
    800012f2:	74696863          	bltu	s2,t1,80001a42 <_end+0x37a>
    800012f6:	6365                	lui	t1,0x19
    800012f8:	7574                	ld	a3,232(a0)
    800012fa:	6572                	ld	a0,280(sp)
    800012fc:	4920                	lw	s0,80(a0)
    800012fe:	2044                	fld	fs1,128(s0)
    80001300:	203d                	.2byte	0x203d
    80001302:	6c25                	lui	s8,0x9
    80001304:	0d78                	addi	a4,sp,668
    80001306:	000a                	c.slli	zero,0x2
    80001308:	6e69                	lui	t3,0x1a
    8000130a:	6574                	ld	a3,200(a0)
    8000130c:	7272                	ld	tp,312(sp)
    8000130e:	7075                	c.lui	zero,0xffffd
    80001310:	3a74                	fld	fa3,240(a2)
    80001312:	2520                	fld	fs0,72(a0)
    80001314:	0a78                	addi	a4,sp,284
	...

Disassembly of section .rodata._svfprintf_r.str1.8:

0000000080001318 <.rodata._svfprintf_r.str1.8>:
    80001318:	2b302d23          	sw	s3,698(zero) # 2ba <_start-0x7ffffd46>
    8000131c:	0020                	addi	s0,sp,8
    8000131e:	0000                	unimp
    80001320:	6c68                	ld	a0,216(s0)
    80001322:	004c                	addi	a1,sp,4
    80001324:	0000                	unimp
    80001326:	0000                	unimp
    80001328:	6665                	lui	a2,0x19
    8000132a:	47464567          	.4byte	0x47464567
	...

Disassembly of section .rodata._printf_i.str1.8:

0000000080001330 <.rodata._printf_i.str1.8>:
    80001330:	3130                	fld	fa2,96(a0)
    80001332:	3332                	fld	ft6,296(sp)
    80001334:	3534                	fld	fa3,104(a0)
    80001336:	3736                	fld	fa4,360(sp)
    80001338:	3938                	fld	fa4,112(a0)
    8000133a:	4241                	li	tp,16
    8000133c:	46454443          	.4byte	0x46454443
	...
    80001348:	3130                	fld	fa2,96(a0)
    8000134a:	3332                	fld	ft6,296(sp)
    8000134c:	3534                	fld	fa3,104(a0)
    8000134e:	3736                	fld	fa4,360(sp)
    80001350:	3938                	fld	fa4,112(a0)
    80001352:	6261                	lui	tp,0x18
    80001354:	66656463          	bltu	a0,t1,800019bc <_end+0x2f4>
	...

Disassembly of section .rodata._printf_i:

000000008000135c <.rodata._printf_i>:
    8000135c:	f896                	sd	t0,112(sp)
    8000135e:	ffff                	.2byte	0xffff
    80001360:	f8ac                	sd	a1,112(s1)
    80001362:	ffff                	.2byte	0xffff
    80001364:	f86c                	sd	a1,240(s0)
    80001366:	ffff                	.2byte	0xffff
    80001368:	f86c                	sd	a1,240(s0)
    8000136a:	ffff                	.2byte	0xffff
    8000136c:	f86c                	sd	a1,240(s0)
    8000136e:	ffff                	.2byte	0xffff
    80001370:	f86c                	sd	a1,240(s0)
    80001372:	ffff                	.2byte	0xffff
    80001374:	f8ac                	sd	a1,112(s1)
    80001376:	ffff                	.2byte	0xffff
    80001378:	f86c                	sd	a1,240(s0)
    8000137a:	ffff                	.2byte	0xffff
    8000137c:	f86c                	sd	a1,240(s0)
    8000137e:	ffff                	.2byte	0xffff
    80001380:	f86c                	sd	a1,240(s0)
    80001382:	ffff                	.2byte	0xffff
    80001384:	f86c                	sd	a1,240(s0)
    80001386:	ffff                	.2byte	0xffff
    80001388:	fa22                	sd	s0,304(sp)
    8000138a:	ffff                	.2byte	0xffff
    8000138c:	f918                	sd	a4,48(a0)
    8000138e:	ffff                	.2byte	0xffff
    80001390:	f9b4                	sd	a3,112(a1)
    80001392:	ffff                	.2byte	0xffff
    80001394:	f86c                	sd	a1,240(s0)
    80001396:	ffff                	.2byte	0xffff
    80001398:	f86c                	sd	a1,240(s0)
    8000139a:	ffff                	.2byte	0xffff
    8000139c:	fa56                	sd	s5,304(sp)
    8000139e:	ffff                	.2byte	0xffff
    800013a0:	f86c                	sd	a1,240(s0)
    800013a2:	ffff                	.2byte	0xffff
    800013a4:	f918                	sd	a4,48(a0)
    800013a6:	ffff                	.2byte	0xffff
    800013a8:	f86c                	sd	a1,240(s0)
    800013aa:	ffff                	.2byte	0xffff
    800013ac:	f86c                	sd	a1,240(s0)
    800013ae:	ffff                	.2byte	0xffff
    800013b0:	f9bc                	sd	a5,112(a1)
    800013b2:	ffff                	.2byte	0xffff

Disassembly of section .data.impure_data:

00000000800013b8 <impure_data>:
	...

Disassembly of section .sdata:

0000000080001468 <plic_ctx_controls-0x10>:
    80001468:	0000                	unimp
    8000146a:	4040                	lw	s0,4(s0)
    8000146c:	0000                	unimp
    8000146e:	4120                	lw	s0,64(a0)
    80001470:	0000                	unimp
    80001472:	3f80                	fld	fs0,56(a5)
    80001474:	0000                	unimp
	...

0000000080001478 <plic_ctx_controls>:
    80001478:	0000                	unimp
    8000147a:	0c20                	addi	s0,sp,536
    8000147c:	0000                	unimp
	...

0000000080001480 <plic_priorities>:
    80001480:	0000                	unimp
    80001482:	0c00                	addi	s0,sp,528
    80001484:	0000                	unimp
	...

0000000080001488 <plic_enables>:
    80001488:	2000                	fld	fs0,0(s0)
    8000148a:	0c00                	addi	s0,sp,528
    8000148c:	0000                	unimp
	...

0000000080001490 <_global_impure_ptr>:
    80001490:	13b8                	addi	a4,sp,488
    80001492:	8000                	.2byte	0x8000
    80001494:	0000                	unimp
	...

0000000080001498 <_impure_ptr>:
    80001498:	13b8                	addi	a4,sp,488
    8000149a:	8000                	.2byte	0x8000
    8000149c:	0000                	unimp
	...

Disassembly of section .sbss:

00000000800014a0 <done_status>:
	...

00000000800014a8 <__malloc_sbrk_start>:
	...

00000000800014b0 <__malloc_free_list>:
	...

00000000800014b8 <errno>:
	...

00000000800014c0 <heap_end.0>:
	...

Disassembly of section .bss:

00000000800014c8 <str>:
	...

Disassembly of section .riscv.attributes:

0000000000000000 <_tbss_end-0x800016c8>:
   0:	4141                	li	sp,16
   2:	0000                	unimp
   4:	7200                	ld	s0,32(a2)
   6:	7369                	lui	t1,0xffffa
   8:	01007663          	bgeu	zero,a6,14 <_start-0x7fffffec>
   c:	00000037          	lui	zero,0x0
  10:	1004                	addi	s1,sp,32
  12:	7205                	lui	tp,0xfffe1
  14:	3676                	fld	fa2,376(sp)
  16:	6934                	ld	a3,80(a0)
  18:	7032                	.2byte	0x7032
  1a:	5f31                	li	t5,-20
  1c:	326d                	addiw	tp,tp,-5 # fffffffffffe0ffb <__global_pointer$+0xffffffff7ffdf393>
  1e:	3070                	fld	fa2,224(s0)
  20:	615f 7032 5f31      	.byte	0x5f, 0x61, 0x32, 0x70, 0x31, 0x5f
  26:	3266                	fld	ft4,120(sp)
  28:	3270                	fld	fa2,224(a2)
  2a:	645f 7032 5f32      	.byte	0x5f, 0x64, 0x32, 0x70, 0x32, 0x5f
  30:	30703263          	.4byte	0x30703263
  34:	7a5f 6369 7273      	.byte	0x5f, 0x7a, 0x69, 0x63, 0x73, 0x72
  3a:	7032                	.2byte	0x7032
  3c:	0030                	addi	a2,sp,8
  3e:	0108                	addi	a0,sp,128
  40:	0b0a                	slli	s6,s6,0x2

Disassembly of section .comment:

0000000000000000 <.comment>:
   0:	3a434347          	fmsub.d	ft6,ft6,ft4,ft7,rmm
   4:	2820                	fld	fs0,80(s0)
   6:	5078                	lw	a4,100(s0)
   8:	6361                	lui	t1,0x18
   a:	4e47206b          	.4byte	0x4e47206b
   e:	2055                	.2byte	0x2055
  10:	4952                	lw	s2,20(sp)
  12:	562d4353          	.4byte	0x562d4353
  16:	4520                	lw	s0,72(a0)
  18:	626d                	lui	tp,0x1b
  1a:	6465                	lui	s0,0x19
  1c:	6564                	ld	s1,200(a0)
  1e:	2064                	fld	fs1,192(s0)
  20:	20434347          	fmsub.s	ft6,ft6,ft4,ft4,rmm
  24:	3878                	fld	fa4,240(s0)
  26:	5f36                	lw	t5,108(sp)
  28:	3436                	fld	fs0,360(sp)
  2a:	2029                	.2byte	0x2029
  2c:	3231                	addiw	tp,tp,-20 # 1afec <_start-0x7ffe5014>
  2e:	312e                	fld	ft2,232(sp)
  30:	302e                	fld	ft0,232(sp)
	...

Disassembly of section .debug_line:

0000000000000000 <.debug_line>:
       0:	000002e7          	jalr	t0,zero # 0 <_start-0x80000000>
       4:	0005                	c.nop	1
       6:	0008                	.2byte	0x8
       8:	002e                	c.slli	zero,0xb
       a:	0000                	unimp
       c:	0101                	addi	sp,sp,0
       e:	fb01                	bnez	a4,ffffffffffffff1e <__global_pointer$+0xffffffff7fffe2b6>
      10:	0d0e                	slli	s10,s10,0x3
      12:	0100                	addi	s0,sp,128
      14:	0101                	addi	sp,sp,0
      16:	0001                	nop
      18:	0000                	unimp
      1a:	0001                	nop
      1c:	0100                	addi	s0,sp,128
      1e:	0101                	addi	sp,sp,0
      20:	021f 0000 0000      	.byte	0x1f, 0x02, 0x00, 0x00, 0x00, 0x00
      26:	0039                	c.nop	14
      28:	0000                	unimp
      2a:	0102                	c.slli64	sp
      2c:	021f 020f 0046      	.byte	0x1f, 0x02, 0x0f, 0x02, 0x46, 0x00
      32:	0000                	unimp
      34:	4601                	li	a2,0
      36:	0000                	unimp
      38:	0100                	addi	s0,sp,128
      3a:	0900                	addi	s0,sp,144
      3c:	5202                	lw	tp,32(sp)
      3e:	00800003          	lb	zero,8(zero) # 8 <_start-0x7ffffff8>
      42:	0000                	unimp
      44:	0300                	addi	s0,sp,384
      46:	02030113          	addi	sp,t1,32 # 18020 <_start-0x7ffe7fe0>
      4a:	0209                	addi	tp,tp,2 # 2 <_start-0x7ffffffe>
      4c:	0100                	addi	s0,sp,128
      4e:	02090103          	lb	sp,32(s2) # ffffffffffff8020 <__global_pointer$+0xffffffff7fff63b8>
      52:	0100                	addi	s0,sp,128
      54:	02090103          	lb	sp,32(s2)
      58:	0100                	addi	s0,sp,128
      5a:	02090103          	lb	sp,32(s2)
      5e:	0100                	addi	s0,sp,128
      60:	02090103          	lb	sp,32(s2)
      64:	0100                	addi	s0,sp,128
      66:	02090103          	lb	sp,32(s2)
      6a:	0100                	addi	s0,sp,128
      6c:	02090103          	lb	sp,32(s2)
      70:	0100                	addi	s0,sp,128
      72:	02090103          	lb	sp,32(s2)
      76:	0100                	addi	s0,sp,128
      78:	02090103          	lb	sp,32(s2)
      7c:	0100                	addi	s0,sp,128
      7e:	02090103          	lb	sp,32(s2)
      82:	0100                	addi	s0,sp,128
      84:	02090103          	lb	sp,32(s2)
      88:	0100                	addi	s0,sp,128
      8a:	02090103          	lb	sp,32(s2)
      8e:	0100                	addi	s0,sp,128
      90:	02090103          	lb	sp,32(s2)
      94:	0100                	addi	s0,sp,128
      96:	02090103          	lb	sp,32(s2)
      9a:	0100                	addi	s0,sp,128
      9c:	02090103          	lb	sp,32(s2)
      a0:	0100                	addi	s0,sp,128
      a2:	02090103          	lb	sp,32(s2)
      a6:	0100                	addi	s0,sp,128
      a8:	02090103          	lb	sp,32(s2)
      ac:	0100                	addi	s0,sp,128
      ae:	02090103          	lb	sp,32(s2)
      b2:	0100                	addi	s0,sp,128
      b4:	02090103          	lb	sp,32(s2)
      b8:	0100                	addi	s0,sp,128
      ba:	02090103          	lb	sp,32(s2)
      be:	0100                	addi	s0,sp,128
      c0:	02090103          	lb	sp,32(s2)
      c4:	0100                	addi	s0,sp,128
      c6:	02090103          	lb	sp,32(s2)
      ca:	0100                	addi	s0,sp,128
      cc:	02090103          	lb	sp,32(s2)
      d0:	0100                	addi	s0,sp,128
      d2:	02090103          	lb	sp,32(s2)
      d6:	0100                	addi	s0,sp,128
      d8:	02090103          	lb	sp,32(s2)
      dc:	0100                	addi	s0,sp,128
      de:	02090103          	lb	sp,32(s2)
      e2:	0100                	addi	s0,sp,128
      e4:	02090103          	lb	sp,32(s2)
      e8:	0100                	addi	s0,sp,128
      ea:	02090103          	lb	sp,32(s2)
      ee:	0100                	addi	s0,sp,128
      f0:	02090103          	lb	sp,32(s2)
      f4:	0100                	addi	s0,sp,128
      f6:	02090103          	lb	sp,32(s2)
      fa:	0100                	addi	s0,sp,128
      fc:	02090103          	lb	sp,32(s2)
     100:	0100                	addi	s0,sp,128
     102:	02090203          	lb	tp,32(s2)
     106:	0100                	addi	s0,sp,128
     108:	04090203          	lb	tp,64(s2)
     10c:	0100                	addi	s0,sp,128
     10e:	02090103          	lb	sp,32(s2)
     112:	0100                	addi	s0,sp,128
     114:	02090103          	lb	sp,32(s2)
     118:	0100                	addi	s0,sp,128
     11a:	02090103          	lb	sp,32(s2)
     11e:	0100                	addi	s0,sp,128
     120:	02090103          	lb	sp,32(s2)
     124:	0100                	addi	s0,sp,128
     126:	02090103          	lb	sp,32(s2)
     12a:	0100                	addi	s0,sp,128
     12c:	02090103          	lb	sp,32(s2)
     130:	0100                	addi	s0,sp,128
     132:	02090103          	lb	sp,32(s2)
     136:	0100                	addi	s0,sp,128
     138:	02090103          	lb	sp,32(s2)
     13c:	0100                	addi	s0,sp,128
     13e:	02090103          	lb	sp,32(s2)
     142:	0100                	addi	s0,sp,128
     144:	02090103          	lb	sp,32(s2)
     148:	0100                	addi	s0,sp,128
     14a:	02090103          	lb	sp,32(s2)
     14e:	0100                	addi	s0,sp,128
     150:	02090103          	lb	sp,32(s2)
     154:	0100                	addi	s0,sp,128
     156:	02090103          	lb	sp,32(s2)
     15a:	0100                	addi	s0,sp,128
     15c:	02090103          	lb	sp,32(s2)
     160:	0100                	addi	s0,sp,128
     162:	02090103          	lb	sp,32(s2)
     166:	0100                	addi	s0,sp,128
     168:	02090103          	lb	sp,32(s2)
     16c:	0100                	addi	s0,sp,128
     16e:	02090103          	lb	sp,32(s2)
     172:	0100                	addi	s0,sp,128
     174:	02090103          	lb	sp,32(s2)
     178:	0100                	addi	s0,sp,128
     17a:	02090103          	lb	sp,32(s2)
     17e:	0100                	addi	s0,sp,128
     180:	02090103          	lb	sp,32(s2)
     184:	0100                	addi	s0,sp,128
     186:	02090103          	lb	sp,32(s2)
     18a:	0100                	addi	s0,sp,128
     18c:	02090103          	lb	sp,32(s2)
     190:	0100                	addi	s0,sp,128
     192:	02090103          	lb	sp,32(s2)
     196:	0100                	addi	s0,sp,128
     198:	02090103          	lb	sp,32(s2)
     19c:	0100                	addi	s0,sp,128
     19e:	02090103          	lb	sp,32(s2)
     1a2:	0100                	addi	s0,sp,128
     1a4:	02090103          	lb	sp,32(s2)
     1a8:	0100                	addi	s0,sp,128
     1aa:	02090103          	lb	sp,32(s2)
     1ae:	0100                	addi	s0,sp,128
     1b0:	02090103          	lb	sp,32(s2)
     1b4:	0100                	addi	s0,sp,128
     1b6:	02090103          	lb	sp,32(s2)
     1ba:	0100                	addi	s0,sp,128
     1bc:	02090103          	lb	sp,32(s2)
     1c0:	0100                	addi	s0,sp,128
     1c2:	02090203          	lb	tp,32(s2)
     1c6:	0100                	addi	s0,sp,128
     1c8:	02090103          	lb	sp,32(s2)
     1cc:	0100                	addi	s0,sp,128
     1ce:	0409                	addi	s0,s0,2 # 19002 <_start-0x7ffe6ffe>
     1d0:	0000                	unimp
     1d2:	0101                	addi	sp,sp,0
     1d4:	0900                	addi	s0,sp,144
     1d6:	0002                	c.slli64	zero
     1d8:	0000                	unimp
     1da:	0080                	addi	s0,sp,64
     1dc:	0000                	unimp
     1de:	0300                	addi	s0,sp,384
     1e0:	00dd                	addi	ra,ra,23 # 80000a47 <_svfiprintf_r+0x26b>
     1e2:	0301                	addi	t1,t1,0
     1e4:	0901                	addi	s2,s2,0
     1e6:	0008                	.2byte	0x8
     1e8:	0301                	addi	t1,t1,0
     1ea:	0901                	addi	s2,s2,0
     1ec:	000e                	c.slli	zero,0x3
     1ee:	0301                	addi	t1,t1,0
     1f0:	0901                	addi	s2,s2,0
     1f2:	0004                	.2byte	0x4
     1f4:	0301                	addi	t1,t1,0
     1f6:	0901                	addi	s2,s2,0
     1f8:	0002                	c.slli64	zero
     1fa:	0301                	addi	t1,t1,0
     1fc:	0901                	addi	s2,s2,0
     1fe:	0002                	c.slli64	zero
     200:	0301                	addi	t1,t1,0
     202:	0901                	addi	s2,s2,0
     204:	0002                	c.slli64	zero
     206:	0301                	addi	t1,t1,0
     208:	0901                	addi	s2,s2,0
     20a:	0002                	c.slli64	zero
     20c:	0301                	addi	t1,t1,0
     20e:	0901                	addi	s2,s2,0
     210:	0002                	c.slli64	zero
     212:	0301                	addi	t1,t1,0
     214:	0901                	addi	s2,s2,0
     216:	0002                	c.slli64	zero
     218:	0301                	addi	t1,t1,0
     21a:	0901                	addi	s2,s2,0
     21c:	0002                	c.slli64	zero
     21e:	0301                	addi	t1,t1,0
     220:	0901                	addi	s2,s2,0
     222:	0002                	c.slli64	zero
     224:	0301                	addi	t1,t1,0
     226:	0901                	addi	s2,s2,0
     228:	0002                	c.slli64	zero
     22a:	0301                	addi	t1,t1,0
     22c:	0901                	addi	s2,s2,0
     22e:	0002                	c.slli64	zero
     230:	0301                	addi	t1,t1,0
     232:	0901                	addi	s2,s2,0
     234:	0002                	c.slli64	zero
     236:	0301                	addi	t1,t1,0
     238:	0901                	addi	s2,s2,0
     23a:	0002                	c.slli64	zero
     23c:	0301                	addi	t1,t1,0
     23e:	0901                	addi	s2,s2,0
     240:	0002                	c.slli64	zero
     242:	0301                	addi	t1,t1,0
     244:	0901                	addi	s2,s2,0
     246:	0002                	c.slli64	zero
     248:	0301                	addi	t1,t1,0
     24a:	0901                	addi	s2,s2,0
     24c:	0002                	c.slli64	zero
     24e:	0301                	addi	t1,t1,0
     250:	0901                	addi	s2,s2,0
     252:	0002                	c.slli64	zero
     254:	0301                	addi	t1,t1,0
     256:	0901                	addi	s2,s2,0
     258:	0002                	c.slli64	zero
     25a:	0301                	addi	t1,t1,0
     25c:	0901                	addi	s2,s2,0
     25e:	0002                	c.slli64	zero
     260:	0301                	addi	t1,t1,0
     262:	0901                	addi	s2,s2,0
     264:	0002                	c.slli64	zero
     266:	0301                	addi	t1,t1,0
     268:	0901                	addi	s2,s2,0
     26a:	0002                	c.slli64	zero
     26c:	0301                	addi	t1,t1,0
     26e:	0901                	addi	s2,s2,0
     270:	0002                	c.slli64	zero
     272:	0301                	addi	t1,t1,0
     274:	0901                	addi	s2,s2,0
     276:	0002                	c.slli64	zero
     278:	0301                	addi	t1,t1,0
     27a:	0901                	addi	s2,s2,0
     27c:	0002                	c.slli64	zero
     27e:	0301                	addi	t1,t1,0
     280:	0901                	addi	s2,s2,0
     282:	0002                	c.slli64	zero
     284:	0301                	addi	t1,t1,0
     286:	0901                	addi	s2,s2,0
     288:	0002                	c.slli64	zero
     28a:	0301                	addi	t1,t1,0
     28c:	0901                	addi	s2,s2,0
     28e:	0002                	c.slli64	zero
     290:	0301                	addi	t1,t1,0
     292:	0901                	addi	s2,s2,0
     294:	0002                	c.slli64	zero
     296:	0301                	addi	t1,t1,0
     298:	0901                	addi	s2,s2,0
     29a:	0002                	c.slli64	zero
     29c:	0301                	addi	t1,t1,0
     29e:	0901                	addi	s2,s2,0
     2a0:	0002                	c.slli64	zero
     2a2:	0301                	addi	t1,t1,0
     2a4:	0901                	addi	s2,s2,0
     2a6:	0002                	c.slli64	zero
     2a8:	0301                	addi	t1,t1,0
     2aa:	0902                	c.slli64	s2
     2ac:	0002                	c.slli64	zero
     2ae:	0301                	addi	t1,t1,0
     2b0:	0902                	c.slli64	s2
     2b2:	0008                	.2byte	0x8
     2b4:	0301                	addi	t1,t1,0
     2b6:	0904                	addi	s1,sp,144
     2b8:	0004                	.2byte	0x4
     2ba:	0301                	addi	t1,t1,0
     2bc:	00080903          	lb	s2,0(a6) # ffffffffffff9000 <__global_pointer$+0xffffffff7fff7398>
     2c0:	0301                	addi	t1,t1,0
     2c2:	0902                	c.slli64	s2
     2c4:	000c                	.2byte	0xc
     2c6:	0301                	addi	t1,t1,0
     2c8:	0902                	c.slli64	s2
     2ca:	0008                	.2byte	0x8
     2cc:	0301                	addi	t1,t1,0
     2ce:	0901                	addi	s2,s2,0
     2d0:	0004                	.2byte	0x4
     2d2:	0301                	addi	t1,t1,0
     2d4:	0902                	c.slli64	s2
     2d6:	0002                	c.slli64	zero
     2d8:	0301                	addi	t1,t1,0
     2da:	0901                	addi	s2,s2,0
     2dc:	0004                	.2byte	0x4
     2de:	0301                	addi	t1,t1,0
     2e0:	00040903          	lb	s2,0(s0)
     2e4:	0901                	addi	s2,s2,0
     2e6:	0002                	c.slli64	zero
     2e8:	0100                	addi	s0,sp,128
     2ea:	6201                	.2byte	0x6201
     2ec:	05000003          	lb	zero,80(zero) # 50 <_start-0x7fffffb0>
     2f0:	0800                	addi	s0,sp,16
     2f2:	7d00                	ld	s0,56(a0)
     2f4:	0000                	unimp
     2f6:	0100                	addi	s0,sp,128
     2f8:	0101                	addi	sp,sp,0
     2fa:	000d0efb          	.4byte	0xd0efb
     2fe:	0101                	addi	sp,sp,0
     300:	0101                	addi	sp,sp,0
     302:	0000                	unimp
     304:	0100                	addi	s0,sp,128
     306:	0000                	unimp
     308:	0101                	addi	sp,sp,0
     30a:	1f01                	addi	t5,t5,-32 # 19fe0 <_start-0x7ffe6020>
     30c:	0008                	.2byte	0x8
     30e:	0000                	unimp
     310:	6000                	ld	s0,0(s0)
     312:	0000                	unimp
     314:	6900                	ld	s0,16(a0)
     316:	0000                	unimp
     318:	c900                	sw	s0,16(a0)
     31a:	0000                	unimp
     31c:	2500                	fld	fs0,8(a0)
     31e:	0001                	nop
     320:	8c00                	.2byte	0x8c00
     322:	0001                	nop
     324:	9900                	.2byte	0x9900
     326:	0001                	nop
     328:	f100                	sd	s0,32(a0)
     32a:	0001                	nop
     32c:	0200                	addi	s0,sp,256
     32e:	1f01                	addi	t5,t5,-32
     330:	0f02                	c.slli64	t5
     332:	590d                	li	s2,-29
     334:	0000                	unimp
     336:	0100                	addi	s0,sp,128
     338:	0059                	c.nop	22
     33a:	0000                	unimp
     33c:	fa01                	bnez	a2,24c <_start-0x7ffffdb4>
     33e:	0001                	nop
     340:	0200                	addi	s0,sp,256
     342:	0000020b          	.4byte	0x20b
     346:	00021503          	lh	a0,0(tp) # 0 <_start-0x80000000>
     34a:	0400                	addi	s0,sp,512
     34c:	021e                	slli	tp,tp,0x7
     34e:	0000                	unimp
     350:	2805                	addiw	a6,a6,1
     352:	0002                	c.slli64	zero
     354:	0500                	addi	s0,sp,640
     356:	0000022f          	.4byte	0x22f
     35a:	3f05                	addiw	t5,t5,-31
     35c:	0002                	c.slli64	zero
     35e:	0600                	addi	s0,sp,768
     360:	0248                	addi	a0,sp,260
     362:	0000                	unimp
     364:	5006                	.2byte	0x5006
     366:	0002                	c.slli64	zero
     368:	0500                	addi	s0,sp,640
     36a:	0000025b          	.4byte	0x25b
     36e:	00026907          	.4byte	0x26907
     372:	0000                	unimp
     374:	0105                	addi	sp,sp,1
     376:	0900                	addi	s0,sp,144
     378:	9202                	jalr	tp
     37a:	0000                	unimp
     37c:	0080                	addi	s0,sp,64
     37e:	0000                	unimp
     380:	0300                	addi	s0,sp,384
     382:	0501018f          	.4byte	0x501018f
     386:	09010303          	lb	t1,144(sp)
     38a:	0000                	unimp
     38c:	0301                	addi	t1,t1,0
     38e:	0901                	addi	s2,s2,0
     390:	0000                	unimp
     392:	0301                	addi	t1,t1,0
     394:	0901                	addi	s2,s2,0
     396:	0000                	unimp
     398:	0501                	addi	a0,a0,0
     39a:	0611                	addi	a2,a2,4 # 19004 <_start-0x7ffe6ffc>
     39c:	00090003          	lb	zero,0(s2)
     3a0:	0100                	addi	s0,sp,128
     3a2:	0b05                	addi	s6,s6,1
     3a4:	06090003          	lb	zero,96(s2)
     3a8:	0100                	addi	s0,sp,128
     3aa:	0105                	addi	sp,sp,1
     3ac:	06090103          	lb	sp,96(s2)
     3b0:	0100                	addi	s0,sp,128
     3b2:	3e05                	addiw	t3,t3,-31 # 19fe1 <_start-0x7ffe601f>
     3b4:	0306                	slli	t1,t1,0x1
     3b6:	0902                	c.slli64	s2
     3b8:	0002                	c.slli64	zero
     3ba:	0501                	addi	a0,a0,0
     3bc:	09010303          	lb	t1,144(sp)
     3c0:	0000                	unimp
     3c2:	0301                	addi	t1,t1,0
     3c4:	0901                	addi	s2,s2,0
     3c6:	0000                	unimp
     3c8:	0501                	addi	a0,a0,0
     3ca:	0626                	slli	a2,a2,0x9
     3cc:	00097f03          	.4byte	0x97f03
     3d0:	0100                	addi	s0,sp,128
     3d2:	2105                	addiw	sp,sp,1
     3d4:	04090003          	lb	zero,64(s2)
     3d8:	0100                	addi	s0,sp,128
     3da:	0305                	addi	t1,t1,1
     3dc:	04090103          	lb	sp,64(s2)
     3e0:	0100                	addi	s0,sp,128
     3e2:	3c05                	addiw	s8,s8,-31 # 8fe1 <_start-0x7fff701f>
     3e4:	0306                	slli	t1,t1,0x1
     3e6:	00080903          	lb	s2,0(a6)
     3ea:	0501                	addi	a0,a0,0
     3ec:	09010303          	lb	t1,144(sp)
     3f0:	0000                	unimp
     3f2:	0501                	addi	a0,a0,0
     3f4:	0003061b          	sext.w	a2,t1
     3f8:	0009                	c.nop	2
     3fa:	0100                	addi	s0,sp,128
     3fc:	0105                	addi	sp,sp,1
     3fe:	10090103          	lb	sp,256(s2)
     402:	0100                	addi	s0,sp,128
     404:	2b05                	addiw	s6,s6,1
     406:	0306                	slli	t1,t1,0x1
     408:	0902                	c.slli64	s2
     40a:	0002                	c.slli64	zero
     40c:	0501                	addi	a0,a0,0
     40e:	09010303          	lb	t1,144(sp)
     412:	0000                	unimp
     414:	0501                	addi	a0,a0,0
     416:	0624                	addi	s1,sp,776
     418:	00090003          	lb	zero,0(s2)
     41c:	0100                	addi	s0,sp,128
     41e:	0105                	addi	sp,sp,1
     420:	0e090103          	lb	sp,224(s2)
     424:	0100                	addi	s0,sp,128
     426:	3a05                	addiw	s4,s4,-31
     428:	0306                	slli	t1,t1,0x1
     42a:	0902                	c.slli64	s2
     42c:	0004                	.2byte	0x4
     42e:	0501                	addi	a0,a0,0
     430:	09010303          	lb	t1,144(sp)
     434:	0000                	unimp
     436:	0501                	addi	a0,a0,0
     438:	062d                	addi	a2,a2,11
     43a:	00090003          	lb	zero,0(s2)
     43e:	0100                	addi	s0,sp,128
     440:	0105                	addi	sp,sp,1
     442:	10090103          	lb	sp,256(s2)
     446:	0100                	addi	s0,sp,128
     448:	0209                	addi	tp,tp,2 # 2 <_start-0x7ffffffe>
     44a:	0000                	unimp
     44c:	0101                	addi	sp,sp,0
     44e:	0c05                	addi	s8,s8,1
     450:	0900                	addi	s0,sp,144
     452:	da02                	sw	zero,52(sp)
     454:	00800003          	lb	zero,8(zero) # 8 <_start-0x7ffffff8>
     458:	0000                	unimp
     45a:	0300                	addi	s0,sp,384
     45c:	01a8                	addi	a0,sp,200
     45e:	0501                	addi	a0,a0,0
     460:	09020303          	lb	t1,144(tp) # 90 <_start-0x7fffff70>
     464:	0000                	unimp
     466:	0501                	addi	a0,a0,0
     468:	060c                	addi	a1,sp,768
     46a:	00097e03          	.4byte	0x97e03
     46e:	0100                	addi	s0,sp,128
     470:	0305                	addi	t1,t1,1
     472:	18090203          	lb	tp,384(s2)
     476:	0100                	addi	s0,sp,128
     478:	0306                	slli	t1,t1,0x1
     47a:	0905                	addi	s2,s2,1
     47c:	0004                	.2byte	0x4
     47e:	0301                	addi	t1,t1,0
     480:	0901                	addi	s2,s2,0
     482:	0000                	unimp
     484:	0501                	addi	a0,a0,0
     486:	061d                	addi	a2,a2,7
     488:	00090003          	lb	zero,0(s2)
     48c:	0100                	addi	s0,sp,128
     48e:	0305                	addi	t1,t1,1
     490:	06090303          	lb	t1,96(s2)
     494:	0100                	addi	s0,sp,128
     496:	1d05                	addi	s10,s10,-31
     498:	06097d03          	.4byte	0x6097d03
     49c:	0100                	addi	s0,sp,128
     49e:	0305                	addi	t1,t1,1
     4a0:	0306                	slli	t1,t1,0x1
     4a2:	00020903          	lb	s2,0(tp) # 0 <_start-0x80000000>
     4a6:	0301                	addi	t1,t1,0
     4a8:	0902                	c.slli64	s2
     4aa:	0004                	.2byte	0x4
     4ac:	0301                	addi	t1,t1,0
     4ae:	0901                	addi	s2,s2,0
     4b0:	0000                	unimp
     4b2:	0301                	addi	t1,t1,0
     4b4:	0901                	addi	s2,s2,0
     4b6:	0000                	unimp
     4b8:	0301                	addi	t1,t1,0
     4ba:	0901                	addi	s2,s2,0
     4bc:	0004                	.2byte	0x4
     4be:	0301                	addi	t1,t1,0
     4c0:	0901                	addi	s2,s2,0
     4c2:	0000                	unimp
     4c4:	0301                	addi	t1,t1,0
     4c6:	0902                	c.slli64	s2
     4c8:	0000                	unimp
     4ca:	0301                	addi	t1,t1,0
     4cc:	0906                	slli	s2,s2,0x1
     4ce:	0004                	.2byte	0x4
     4d0:	0301                	addi	t1,t1,0
     4d2:	0902                	c.slli64	s2
     4d4:	0010                	.2byte	0x10
     4d6:	0501                	addi	a0,a0,0
     4d8:	062c                	addi	a1,sp,776
     4da:	00090003          	lb	zero,0(s2)
     4de:	0100                	addi	s0,sp,128
     4e0:	0305                	addi	t1,t1,1
     4e2:	08090003          	lb	zero,128(s2)
     4e6:	0100                	addi	s0,sp,128
     4e8:	0306                	slli	t1,t1,0x1
     4ea:	0901                	addi	s2,s2,0
     4ec:	0014                	.2byte	0x14
     4ee:	0501                	addi	a0,a0,0
     4f0:	061a                	slli	a2,a2,0x6
     4f2:	00090003          	lb	zero,0(s2)
     4f6:	0100                	addi	s0,sp,128
     4f8:	0305                	addi	t1,t1,1
     4fa:	0306                	slli	t1,t1,0x1
     4fc:	0901                	addi	s2,s2,0
     4fe:	0012                	c.slli	zero,0x4
     500:	0501                	addi	a0,a0,0
     502:	0609                	addi	a2,a2,2
     504:	00097403          	.4byte	0x97403
     508:	0100                	addi	s0,sp,128
     50a:	0c097f03          	.4byte	0xc097f03
     50e:	0100                	addi	s0,sp,128
     510:	0b05                	addi	s6,s6,1
     512:	08097e03          	.4byte	0x8097e03
     516:	0100                	addi	s0,sp,128
     518:	02097f03          	.4byte	0x2097f03
     51c:	0100                	addi	s0,sp,128
     51e:	0905                	addi	s2,s2,1
     520:	02091203          	lh	tp,32(s2)
     524:	0100                	addi	s0,sp,128
     526:	0505                	addi	a0,a0,1
     528:	02090203          	lb	tp,32(s2)
     52c:	0100                	addi	s0,sp,128
     52e:	0c05                	addi	s8,s8,1
     530:	0c090403          	lb	s0,192(s2)
     534:	0100                	addi	s0,sp,128
     536:	0505                	addi	a0,a0,1
     538:	08090103          	lb	sp,128(s2)
     53c:	0100                	addi	s0,sp,128
     53e:	0305                	addi	t1,t1,1
     540:	0200                	addi	s0,sp,256
     542:	0104                	addi	s1,sp,128
     544:	0306                	slli	t1,t1,0x1
     546:	0978                	addi	a4,sp,156
     548:	0008                	.2byte	0x8
     54a:	0501                	addi	a0,a0,0
     54c:	0005                	c.nop	1
     54e:	0402                	c.slli64	s0
     550:	0301                	addi	t1,t1,0
     552:	0901                	addi	s2,s2,0
     554:	0000                	unimp
     556:	0501                	addi	a0,a0,0
     558:	0009                	c.nop	2
     55a:	0402                	c.slli64	s0
     55c:	0601                	addi	a2,a2,0
     55e:	00090003          	lb	zero,0(s2)
     562:	0100                	addi	s0,sp,128
     564:	0505                	addi	a0,a0,1
     566:	0200                	addi	s0,sp,256
     568:	0104                	addi	s1,sp,128
     56a:	0306                	slli	t1,t1,0x1
     56c:	0901                	addi	s2,s2,0
     56e:	0004                	.2byte	0x4
     570:	0501                	addi	a0,a0,0
     572:	0402000b          	.4byte	0x402000b
     576:	0601                	addi	a2,a2,0
     578:	00090003          	lb	zero,0(s2)
     57c:	0100                	addi	s0,sp,128
     57e:	0505                	addi	a0,a0,1
     580:	0200                	addi	s0,sp,256
     582:	0104                	addi	s1,sp,128
     584:	0306                	slli	t1,t1,0x1
     586:	0901                	addi	s2,s2,0
     588:	0002                	c.slli64	zero
     58a:	0001                	nop
     58c:	0402                	c.slli64	s0
     58e:	0301                	addi	t1,t1,0
     590:	0901                	addi	s2,s2,0
     592:	0010                	.2byte	0x10
     594:	0501                	addi	a0,a0,0
     596:	002e                	c.slli	zero,0xb
     598:	0402                	c.slli64	s0
     59a:	0601                	addi	a2,a2,0
     59c:	00090003          	lb	zero,0(s2)
     5a0:	0100                	addi	s0,sp,128
     5a2:	0505                	addi	a0,a0,1
     5a4:	0200                	addi	s0,sp,256
     5a6:	0104                	addi	s1,sp,128
     5a8:	06090003          	lb	zero,96(s2)
     5ac:	0100                	addi	s0,sp,128
     5ae:	0200                	addi	s0,sp,256
     5b0:	0104                	addi	s1,sp,128
     5b2:	0306                	slli	t1,t1,0x1
     5b4:	0901                	addi	s2,s2,0
     5b6:	0012                	c.slli	zero,0x4
     5b8:	0001                	nop
     5ba:	0402                	c.slli64	s0
     5bc:	0301                	addi	t1,t1,0
     5be:	0901                	addi	s2,s2,0
     5c0:	0008                	.2byte	0x8
     5c2:	0501                	addi	a0,a0,0
     5c4:	000a                	c.slli	zero,0x2
     5c6:	0402                	c.slli64	s0
     5c8:	0601                	addi	a2,a2,0
     5ca:	00090003          	lb	zero,0(s2)
     5ce:	0100                	addi	s0,sp,128
     5d0:	0505                	addi	a0,a0,1
     5d2:	0200                	addi	s0,sp,256
     5d4:	0104                	addi	s1,sp,128
     5d6:	0306                	slli	t1,t1,0x1
     5d8:	0901                	addi	s2,s2,0
     5da:	0004                	.2byte	0x4
     5dc:	0501                	addi	a0,a0,0
     5de:	000c                	.2byte	0xc
     5e0:	0402                	c.slli64	s0
     5e2:	0601                	addi	a2,a2,0
     5e4:	00090003          	lb	zero,0(s2)
     5e8:	0100                	addi	s0,sp,128
     5ea:	0505                	addi	a0,a0,1
     5ec:	0200                	addi	s0,sp,256
     5ee:	0104                	addi	s1,sp,128
     5f0:	0306                	slli	t1,t1,0x1
     5f2:	0901                	addi	s2,s2,0
     5f4:	0004                	.2byte	0x4
     5f6:	0501                	addi	a0,a0,0
     5f8:	0402004f          	.4byte	0x402004f
     5fc:	0601                	addi	a2,a2,0
     5fe:	04090003          	lb	zero,64(s2)
     602:	0100                	addi	s0,sp,128
     604:	0505                	addi	a0,a0,1
     606:	0200                	addi	s0,sp,256
     608:	0104                	addi	s1,sp,128
     60a:	04090003          	lb	zero,64(s2)
     60e:	0100                	addi	s0,sp,128
     610:	0200                	addi	s0,sp,256
     612:	0104                	addi	s1,sp,128
     614:	0306                	slli	t1,t1,0x1
     616:	0901                	addi	s2,s2,0
     618:	001c                	.2byte	0x1c
     61a:	0001                	nop
     61c:	0402                	c.slli64	s0
     61e:	0301                	addi	t1,t1,0
     620:	0901                	addi	s2,s2,0
     622:	0008                	.2byte	0x8
     624:	0501                	addi	a0,a0,0
     626:	002e                	c.slli	zero,0xb
     628:	0402                	c.slli64	s0
     62a:	0601                	addi	a2,a2,0
     62c:	00090003          	lb	zero,0(s2)
     630:	0100                	addi	s0,sp,128
     632:	0505                	addi	a0,a0,1
     634:	0200                	addi	s0,sp,256
     636:	0104                	addi	s1,sp,128
     638:	06090003          	lb	zero,96(s2)
     63c:	0100                	addi	s0,sp,128
     63e:	0905                	addi	s2,s2,1
     640:	0200                	addi	s0,sp,256
     642:	0104                	addi	s1,sp,128
     644:	0306                	slli	t1,t1,0x1
     646:	0976                	slli	s2,s2,0x1d
     648:	0012                	c.slli	zero,0x4
     64a:	0901                	addi	s2,s2,0
     64c:	0002                	c.slli64	zero
     64e:	0100                	addi	s0,sp,128
     650:	0101                	addi	sp,sp,0
     652:	05000003          	lb	zero,80(zero) # 50 <_start-0x7fffffb0>
     656:	0800                	addi	s0,sp,16
     658:	6a00                	ld	s0,16(a2)
     65a:	0000                	unimp
     65c:	0100                	addi	s0,sp,128
     65e:	0101                	addi	sp,sp,0
     660:	000d0efb          	.4byte	0xd0efb
     664:	0101                	addi	sp,sp,0
     666:	0101                	addi	sp,sp,0
     668:	0000                	unimp
     66a:	0100                	addi	s0,sp,128
     66c:	0000                	unimp
     66e:	0101                	addi	sp,sp,0
     670:	1f01                	addi	t5,t5,-32
     672:	00000007          	.4byte	0x7
     676:	6000                	ld	s0,0(s0)
     678:	0000                	unimp
     67a:	6900                	ld	s0,16(a0)
     67c:	0000                	unimp
     67e:	c900                	sw	s0,16(a0)
     680:	0000                	unimp
     682:	2500                	fld	fs0,8(a0)
     684:	0001                	nop
     686:	8c00                	.2byte	0x8c00
     688:	0001                	nop
     68a:	9900                	.2byte	0x9900
     68c:	0001                	nop
     68e:	0200                	addi	s0,sp,256
     690:	1f01                	addi	t5,t5,-32
     692:	0f02                	c.slli64	t5
     694:	7d0a                	ld	s10,160(sp)
     696:	0002                	c.slli64	zero
     698:	0100                	addi	s0,sp,128
     69a:	027d                	addi	tp,tp,31 # 1f <_start-0x7fffffe1>
     69c:	0000                	unimp
     69e:	fa01                	bnez	a2,5ae <_start-0x7ffffa52>
     6a0:	0001                	nop
     6a2:	0200                	addi	s0,sp,256
     6a4:	0000020b          	.4byte	0x20b
     6a8:	00021503          	lh	a0,0(tp) # 0 <_start-0x80000000>
     6ac:	0400                	addi	s0,sp,512
     6ae:	021e                	slli	tp,tp,0x7
     6b0:	0000                	unimp
     6b2:	2805                	addiw	a6,a6,1
     6b4:	0002                	c.slli64	zero
     6b6:	0500                	addi	s0,sp,640
     6b8:	0000022f          	.4byte	0x22f
     6bc:	3f05                	addiw	t5,t5,-31
     6be:	0002                	c.slli64	zero
     6c0:	0600                	addi	s0,sp,768
     6c2:	0248                	addi	a0,sp,260
     6c4:	0000                	unimp
     6c6:	0506                	slli	a0,a0,0x1
     6c8:	0001                	nop
     6ca:	0209                	addi	tp,tp,2 # 2 <_start-0x7ffffffe>
     6cc:	00e6                	slli	ra,ra,0x19
     6ce:	8000                	.2byte	0x8000
     6d0:	0000                	unimp
     6d2:	0000                	unimp
     6d4:	0518                	addi	a4,sp,640
     6d6:	09010303          	lb	t1,144(sp)
     6da:	0000                	unimp
     6dc:	0301                	addi	t1,t1,0
     6de:	0901                	addi	s2,s2,0
     6e0:	0000                	unimp
     6e2:	0301                	addi	t1,t1,0
     6e4:	0901                	addi	s2,s2,0
     6e6:	0000                	unimp
     6e8:	0501                	addi	a0,a0,0
     6ea:	0601                	addi	a2,a2,0
     6ec:	00097d03          	.4byte	0x97d03
     6f0:	0100                	addi	s0,sp,128
     6f2:	0305                	addi	t1,t1,1
     6f4:	04090303          	lb	t1,64(s2)
     6f8:	0100                	addi	s0,sp,128
     6fa:	0306                	slli	t1,t1,0x1
     6fc:	0901                	addi	s2,s2,0
     6fe:	0004                	.2byte	0x4
     700:	0301                	addi	t1,t1,0
     702:	0901                	addi	s2,s2,0
     704:	000e                	c.slli	zero,0x3
     706:	0501                	addi	a0,a0,0
     708:	062c                	addi	a1,sp,776
     70a:	00090003          	lb	zero,0(s2)
     70e:	0100                	addi	s0,sp,128
     710:	0305                	addi	t1,t1,1
     712:	06090003          	lb	zero,96(s2)
     716:	0100                	addi	s0,sp,128
     718:	0306                	slli	t1,t1,0x1
     71a:	0901                	addi	s2,s2,0
     71c:	0012                	c.slli	zero,0x4
     71e:	0301                	addi	t1,t1,0
     720:	0901                	addi	s2,s2,0
     722:	0004                	.2byte	0x4
     724:	0301                	addi	t1,t1,0
     726:	0901                	addi	s2,s2,0
     728:	000e                	c.slli	zero,0x3
     72a:	0501                	addi	a0,a0,0
     72c:	062c                	addi	a1,sp,776
     72e:	00090003          	lb	zero,0(s2)
     732:	0100                	addi	s0,sp,128
     734:	0305                	addi	t1,t1,1
     736:	06090003          	lb	zero,96(s2)
     73a:	0100                	addi	s0,sp,128
     73c:	0306                	slli	t1,t1,0x1
     73e:	0901                	addi	s2,s2,0
     740:	0012                	c.slli	zero,0x4
     742:	0301                	addi	t1,t1,0
     744:	0901                	addi	s2,s2,0
     746:	0004                	.2byte	0x4
     748:	0301                	addi	t1,t1,0
     74a:	0901                	addi	s2,s2,0
     74c:	000e                	c.slli	zero,0x3
     74e:	0501                	addi	a0,a0,0
     750:	062c                	addi	a1,sp,776
     752:	00090003          	lb	zero,0(s2)
     756:	0100                	addi	s0,sp,128
     758:	0305                	addi	t1,t1,1
     75a:	06090003          	lb	zero,96(s2)
     75e:	0100                	addi	s0,sp,128
     760:	0105                	addi	sp,sp,1
     762:	12090103          	lb	sp,288(s2)
     766:	0100                	addi	s0,sp,128
     768:	1705                	addi	a4,a4,-31
     76a:	0306                	slli	t1,t1,0x1
     76c:	00060903          	lb	s2,0(a2)
     770:	0501                	addi	a0,a0,0
     772:	0305                	addi	t1,t1,1
     774:	0901                	addi	s2,s2,0
     776:	0000                	unimp
     778:	0301                	addi	t1,t1,0
     77a:	0901                	addi	s2,s2,0
     77c:	0000                	unimp
     77e:	0301                	addi	t1,t1,0
     780:	0901                	addi	s2,s2,0
     782:	0004                	.2byte	0x4
     784:	0301                	addi	t1,t1,0
     786:	0901                	addi	s2,s2,0
     788:	0000                	unimp
     78a:	0501                	addi	a0,a0,0
     78c:	060d                	addi	a2,a2,3
     78e:	00097f03          	.4byte	0x97f03
     792:	0100                	addi	s0,sp,128
     794:	0505                	addi	a0,a0,1
     796:	04090103          	lb	sp,64(s2)
     79a:	0100                	addi	s0,sp,128
     79c:	0306                	slli	t1,t1,0x1
     79e:	0902                	c.slli64	s2
     7a0:	0004                	.2byte	0x4
     7a2:	0501                	addi	a0,a0,0
     7a4:	0601                	addi	a2,a2,0
     7a6:	04092203          	lw	tp,64(s2)
     7aa:	0100                	addi	s0,sp,128
     7ac:	1805                	addi	a6,a6,-31
     7ae:	0306                	slli	t1,t1,0x1
     7b0:	00020903          	lb	s2,0(tp) # 0 <_start-0x80000000>
     7b4:	0501                	addi	a0,a0,0
     7b6:	09020303          	lb	t1,144(tp) # 90 <_start-0x7fffff70>
     7ba:	0000                	unimp
     7bc:	0301                	addi	t1,t1,0
     7be:	0901                	addi	s2,s2,0
     7c0:	0006                	c.slli	zero,0x1
     7c2:	0301                	addi	t1,t1,0
     7c4:	0901                	addi	s2,s2,0
     7c6:	0002                	c.slli64	zero
     7c8:	0301                	addi	t1,t1,0
     7ca:	0901                	addi	s2,s2,0
     7cc:	0004                	.2byte	0x4
     7ce:	0501                	addi	a0,a0,0
     7d0:	0322                	slli	t1,t1,0x8
     7d2:	0905                	addi	s2,s2,1
     7d4:	0002                	c.slli64	zero
     7d6:	0501                	addi	a0,a0,0
     7d8:	09000323          	sb	a6,134(zero) # 86 <_start-0x7fffff7a>
     7dc:	0000                	unimp
     7de:	0501                	addi	a0,a0,0
     7e0:	0306                	slli	t1,t1,0x1
     7e2:	0901                	addi	s2,s2,0
     7e4:	0002                	c.slli64	zero
     7e6:	0301                	addi	t1,t1,0
     7e8:	0901                	addi	s2,s2,0
     7ea:	0002                	c.slli64	zero
     7ec:	0301                	addi	t1,t1,0
     7ee:	0901                	addi	s2,s2,0
     7f0:	0002                	c.slli64	zero
     7f2:	0301                	addi	t1,t1,0
     7f4:	0901                	addi	s2,s2,0
     7f6:	0002                	c.slli64	zero
     7f8:	0301                	addi	t1,t1,0
     7fa:	0901                	addi	s2,s2,0
     7fc:	0002                	c.slli64	zero
     7fe:	0301                	addi	t1,t1,0
     800:	0901                	addi	s2,s2,0
     802:	0002                	c.slli64	zero
     804:	0301                	addi	t1,t1,0
     806:	0901                	addi	s2,s2,0
     808:	0002                	c.slli64	zero
     80a:	0301                	addi	t1,t1,0
     80c:	0901                	addi	s2,s2,0
     80e:	0002                	c.slli64	zero
     810:	0301                	addi	t1,t1,0
     812:	0901                	addi	s2,s2,0
     814:	0002                	c.slli64	zero
     816:	0301                	addi	t1,t1,0
     818:	0901                	addi	s2,s2,0
     81a:	0002                	c.slli64	zero
     81c:	0501                	addi	a0,a0,0
     81e:	0325                	addi	t1,t1,9
     820:	0902                	c.slli64	s2
     822:	0002                	c.slli64	zero
     824:	0501                	addi	a0,a0,0
     826:	09010303          	lb	t1,144(sp)
     82a:	0000                	unimp
     82c:	0301                	addi	t1,t1,0
     82e:	0901                	addi	s2,s2,0
     830:	0000                	unimp
     832:	0301                	addi	t1,t1,0
     834:	0901                	addi	s2,s2,0
     836:	0000                	unimp
     838:	0501                	addi	a0,a0,0
     83a:	0625                	addi	a2,a2,9
     83c:	00097d03          	.4byte	0x97d03
     840:	0100                	addi	s0,sp,128
     842:	0305                	addi	t1,t1,1
     844:	02090303          	lb	t1,32(s2)
     848:	0100                	addi	s0,sp,128
     84a:	2505                	addiw	a0,a0,1
     84c:	0c097d03          	.4byte	0xc097d03
     850:	0100                	addi	s0,sp,128
     852:	0305                	addi	t1,t1,1
     854:	02090303          	lb	t1,32(s2)
     858:	0100                	addi	s0,sp,128
     85a:	0105                	addi	sp,sp,1
     85c:	04090203          	lb	tp,64(s2)
     860:	0100                	addi	s0,sp,128
     862:	1505                	addi	a0,a0,-31
     864:	0306                	slli	t1,t1,0x1
     866:	0904                	addi	s1,sp,144
     868:	0006                	c.slli	zero,0x1
     86a:	0501                	addi	a0,a0,0
     86c:	09010303          	lb	t1,144(sp)
     870:	0000                	unimp
     872:	0301                	addi	t1,t1,0
     874:	0901                	addi	s2,s2,0
     876:	0000                	unimp
     878:	0301                	addi	t1,t1,0
     87a:	0902                	c.slli64	s2
     87c:	0008                	.2byte	0x8
     87e:	0301                	addi	t1,t1,0
     880:	0902                	c.slli64	s2
     882:	0000                	unimp
     884:	0501                	addi	a0,a0,0
     886:	0606                	slli	a2,a2,0x1
     888:	00090003          	lb	zero,0(s2)
     88c:	0100                	addi	s0,sp,128
     88e:	0505                	addi	a0,a0,1
     890:	0306                	slli	t1,t1,0x1
     892:	0901                	addi	s2,s2,0
     894:	0006                	c.slli	zero,0x1
     896:	0501                	addi	a0,a0,0
     898:	0615                	addi	a2,a2,5
     89a:	00097903          	.4byte	0x97903
     89e:	0100                	addi	s0,sp,128
     8a0:	0805                	addi	a6,a6,1
     8a2:	02090703          	lb	a4,32(s2)
     8a6:	0100                	addi	s0,sp,128
     8a8:	1505                	addi	a0,a0,-31
     8aa:	04097903          	.4byte	0x4097903
     8ae:	0100                	addi	s0,sp,128
     8b0:	0805                	addi	a6,a6,1
     8b2:	02090703          	lb	a4,32(s2)
     8b6:	0100                	addi	s0,sp,128
     8b8:	0705                	addi	a4,a4,1
     8ba:	0306                	slli	t1,t1,0x1
     8bc:	0902                	c.slli64	s2
     8be:	0008                	.2byte	0x8
     8c0:	0501                	addi	a0,a0,0
     8c2:	00030613          	mv	a2,t1
     8c6:	0009                	c.nop	2
     8c8:	0100                	addi	s0,sp,128
     8ca:	0505                	addi	a0,a0,1
     8cc:	0306                	slli	t1,t1,0x1
     8ce:	0902                	c.slli64	s2
     8d0:	0008                	.2byte	0x8
     8d2:	0301                	addi	t1,t1,0
     8d4:	0904                	addi	s1,sp,144
     8d6:	0000                	unimp
     8d8:	0301                	addi	t1,t1,0
     8da:	00000903          	lb	s2,0(zero) # 0 <_start-0x80000000>
     8de:	0301                	addi	t1,t1,0
     8e0:	0902                	c.slli64	s2
     8e2:	0000                	unimp
     8e4:	0501                	addi	a0,a0,0
     8e6:	061a                	slli	a2,a2,0x6
     8e8:	00090003          	lb	zero,0(s2)
     8ec:	0100                	addi	s0,sp,128
     8ee:	0505                	addi	a0,a0,1
     8f0:	0306                	slli	t1,t1,0x1
     8f2:	0902                	c.slli64	s2
     8f4:	0006                	c.slli	zero,0x1
     8f6:	0301                	addi	t1,t1,0
     8f8:	00000917          	auipc	s2,0x0
     8fc:	0501                	addi	a0,a0,0
     8fe:	0601                	addi	a2,a2,0
     900:	00090503          	lb	a0,0(s2) # 8f8 <_start-0x7ffff708>
     904:	0100                	addi	s0,sp,128
     906:	0505                	addi	a0,a0,1
     908:	02097b03          	.4byte	0x2097b03
     90c:	0100                	addi	s0,sp,128
     90e:	0105                	addi	sp,sp,1
     910:	04090503          	lb	a0,64(s2)
     914:	0100                	addi	s0,sp,128
     916:	0505                	addi	a0,a0,1
     918:	00097b03          	.4byte	0x97b03
     91c:	0100                	addi	s0,sp,128
     91e:	0105                	addi	sp,sp,1
     920:	02090503          	lb	a0,32(s2)
     924:	0100                	addi	s0,sp,128
     926:	0505                	addi	a0,a0,1
     928:	02097b03          	.4byte	0x2097b03
     92c:	0100                	addi	s0,sp,128
     92e:	0306                	slli	t1,t1,0x1
     930:	095e                	slli	s2,s2,0x17
     932:	0002                	c.slli64	zero
     934:	0501                	addi	a0,a0,0
     936:	0608                	addi	a0,sp,768
     938:	00090003          	lb	zero,0(s2)
     93c:	0100                	addi	s0,sp,128
     93e:	0705                	addi	a4,a4,1
     940:	0306                	slli	t1,t1,0x1
     942:	0902                	c.slli64	s2
     944:	0006                	c.slli	zero,0x1
     946:	0501                	addi	a0,a0,0
     948:	00030617          	auipc	a2,0x30
     94c:	0009                	c.nop	2
     94e:	0100                	addi	s0,sp,128
     950:	0c09                	addi	s8,s8,2
     952:	0000                	unimp
     954:	0101                	addi	sp,sp,0
     956:	0110                	addi	a2,sp,128
     958:	0000                	unimp
     95a:	0005                	c.nop	1
     95c:	0008                	.2byte	0x8
     95e:	0049                	c.nop	18
     960:	0000                	unimp
     962:	0101                	addi	sp,sp,0
     964:	fb01                	bnez	a4,874 <_start-0x7ffff78c>
     966:	0d0e                	slli	s10,s10,0x3
     968:	0100                	addi	s0,sp,128
     96a:	0101                	addi	sp,sp,0
     96c:	0001                	nop
     96e:	0000                	unimp
     970:	0001                	nop
     972:	0100                	addi	s0,sp,128
     974:	0101                	addi	sp,sp,0
     976:	051f 0000 0000      	.byte	0x1f, 0x05, 0x00, 0x00, 0x00, 0x00
     97c:	000002a3          	sb	zero,5(zero) # 5 <_start-0x7ffffffb>
     980:	0069                	c.nop	26
     982:	0000                	unimp
     984:	00c9                	addi	ra,ra,18
     986:	0000                	unimp
     988:	018c                	addi	a1,sp,192
     98a:	0000                	unimp
     98c:	0102                	c.slli64	sp
     98e:	021f 050f 0298      	.byte	0x1f, 0x02, 0x0f, 0x05, 0x98, 0x02
     994:	0000                	unimp
     996:	9801                	andi	s0,s0,-32
     998:	0002                	c.slli64	zero
     99a:	0100                	addi	s0,sp,128
     99c:	01fa                	slli	gp,gp,0x1e
     99e:	0000                	unimp
     9a0:	0b02                	c.slli64	s6
     9a2:	0002                	c.slli64	zero
     9a4:	0300                	addi	s0,sp,384
     9a6:	02b0                	addi	a2,sp,328
     9a8:	0000                	unimp
     9aa:	0504                	addi	s1,sp,640
     9ac:	0011                	c.nop	4
     9ae:	0209                	addi	tp,tp,2 # 2 <_start-0x7ffffffe>
     9b0:	0208                	addi	a0,sp,256
     9b2:	8000                	.2byte	0x8000
     9b4:	0000                	unimp
     9b6:	0000                	unimp
     9b8:	0515                	addi	a0,a0,5
     9ba:	0301                	addi	t1,t1,0
     9bc:	0902                	c.slli64	s2
     9be:	0000                	unimp
     9c0:	0501                	addi	a0,a0,0
     9c2:	0318                	addi	a4,sp,384
     9c4:	0902                	c.slli64	s2
     9c6:	0002                	c.slli64	zero
     9c8:	0501                	addi	a0,a0,0
     9ca:	09010303          	lb	t1,144(sp)
     9ce:	0000                	unimp
     9d0:	0501                	addi	a0,a0,0
     9d2:	060a                	slli	a2,a2,0x2
     9d4:	00090003          	lb	zero,0(s2)
     9d8:	0100                	addi	s0,sp,128
     9da:	1f05                	addi	t5,t5,-31
     9dc:	0306                	slli	t1,t1,0x1
     9de:	00020903          	lb	s2,0(tp) # 0 <_start-0x80000000>
     9e2:	0501                	addi	a0,a0,0
     9e4:	09010303          	lb	t1,144(sp)
     9e8:	0000                	unimp
     9ea:	0301                	addi	t1,t1,0
     9ec:	097c                	addi	a5,sp,156
     9ee:	0000                	unimp
     9f0:	0501                	addi	a0,a0,0
     9f2:	061f 0303 0009      	.byte	0x1f, 0x06, 0x03, 0x03, 0x09, 0x00
     9f8:	0100                	addi	s0,sp,128
     9fa:	06090003          	lb	zero,96(s2)
     9fe:	0100                	addi	s0,sp,128
     a00:	0a05                	addi	s4,s4,1
     a02:	02097d03          	.4byte	0x2097d03
     a06:	0100                	addi	s0,sp,128
     a08:	3005                	.2byte	0x3005
     a0a:	04090403          	lb	s0,64(s2)
     a0e:	0100                	addi	s0,sp,128
     a10:	0c05                	addi	s8,s8,1
     a12:	06090003          	lb	zero,96(s2)
     a16:	0100                	addi	s0,sp,128
     a18:	0305                	addi	t1,t1,1
     a1a:	0306                	slli	t1,t1,0x1
     a1c:	0901                	addi	s2,s2,0
     a1e:	0002                	c.slli64	zero
     a20:	0001                	nop
     a22:	0402                	c.slli64	s0
     a24:	0301                	addi	t1,t1,0
     a26:	0902                	c.slli64	s2
     a28:	0000                	unimp
     a2a:	0501                	addi	a0,a0,0
     a2c:	0018                	.2byte	0x18
     a2e:	0402                	c.slli64	s0
     a30:	0301                	addi	t1,t1,0
     a32:	097e                	slli	s2,s2,0x1f
     a34:	0000                	unimp
     a36:	0501                	addi	a0,a0,0
     a38:	04020003          	lb	zero,64(tp) # 40 <_start-0x7fffffc0>
     a3c:	0301                	addi	t1,t1,0
     a3e:	0000097b          	.4byte	0x97b
     a42:	0501                	addi	a0,a0,0
     a44:	000a                	c.slli	zero,0x2
     a46:	0402                	c.slli64	s0
     a48:	0601                	addi	a2,a2,0 # 30948 <_start-0x7ffcf6b8>
     a4a:	00090003          	lb	zero,0(s2)
     a4e:	0100                	addi	s0,sp,128
     a50:	1805                	addi	a6,a6,-31
     a52:	0200                	addi	s0,sp,256
     a54:	0104                	addi	s1,sp,128
     a56:	04090503          	lb	a0,64(s2)
     a5a:	0100                	addi	s0,sp,128
     a5c:	0105                	addi	sp,sp,1
     a5e:	04090303          	lb	t1,64(s2)
     a62:	0100                	addi	s0,sp,128
     a64:	0809                	addi	a6,a6,2
     a66:	0000                	unimp
     a68:	0101                	addi	sp,sp,0
     a6a:	00ac                	addi	a1,sp,72
     a6c:	0000                	unimp
     a6e:	0005                	c.nop	1
     a70:	0008                	.2byte	0x8
     a72:	0049                	c.nop	18
     a74:	0000                	unimp
     a76:	0101                	addi	sp,sp,0
     a78:	fb01                	bnez	a4,988 <_start-0x7ffff678>
     a7a:	0d0e                	slli	s10,s10,0x3
     a7c:	0100                	addi	s0,sp,128
     a7e:	0101                	addi	sp,sp,0
     a80:	0001                	nop
     a82:	0000                	unimp
     a84:	0001                	nop
     a86:	0100                	addi	s0,sp,128
     a88:	0101                	addi	sp,sp,0
     a8a:	051f 0000 0000      	.byte	0x1f, 0x05, 0x00, 0x00, 0x00, 0x00
     a90:	000002a3          	sb	zero,5(zero) # 5 <_start-0x7ffffffb>
     a94:	0069                	c.nop	26
     a96:	0000                	unimp
     a98:	00c9                	addi	ra,ra,18
     a9a:	0000                	unimp
     a9c:	018c                	addi	a1,sp,192
     a9e:	0000                	unimp
     aa0:	0102                	c.slli64	sp
     aa2:	021f 050f 02ce      	.byte	0x1f, 0x02, 0x0f, 0x05, 0xce, 0x02
     aa8:	0000                	unimp
     aaa:	ce01                	beqz	a2,ac2 <_start-0x7ffff53e>
     aac:	0002                	c.slli64	zero
     aae:	0100                	addi	s0,sp,128
     ab0:	01fa                	slli	gp,gp,0x1e
     ab2:	0000                	unimp
     ab4:	0b02                	c.slli64	s6
     ab6:	0002                	c.slli64	zero
     ab8:	0300                	addi	s0,sp,384
     aba:	0228                	addi	a0,sp,264
     abc:	0000                	unimp
     abe:	0504                	addi	s1,sp,640
     ac0:	0021                	c.nop	8
     ac2:	0209                	addi	tp,tp,2 # 2 <_start-0x7ffffffe>
     ac4:	0230                	addi	a2,sp,264
     ac6:	8000                	.2byte	0x8000
     ac8:	0000                	unimp
     aca:	0000                	unimp
     acc:	0516                	slli	a0,a0,0x5
     ace:	09020303          	lb	t1,144(tp) # 90 <_start-0x7fffff70>
     ad2:	0000                	unimp
     ad4:	0301                	addi	t1,t1,0
     ad6:	0901                	addi	s2,s2,0
     ad8:	0000                	unimp
     ada:	0501                	addi	a0,a0,0
     adc:	0601                	addi	a2,a2,0
     ade:	06090103          	lb	sp,96(s2)
     ae2:	0100                	addi	s0,sp,128
     ae4:	2905                	addiw	s2,s2,1
     ae6:	0306                	slli	t1,t1,0x1
     ae8:	0902                	c.slli64	s2
     aea:	0002                	c.slli64	zero
     aec:	0501                	addi	a0,a0,0
     aee:	09010303          	lb	t1,144(sp)
     af2:	0000                	unimp
     af4:	0301                	addi	t1,t1,0
     af6:	0901                	addi	s2,s2,0
     af8:	0000                	unimp
     afa:	0501                	addi	a0,a0,0
     afc:	060c                	addi	a1,sp,768
     afe:	00097f03          	.4byte	0x97f03
     b02:	0100                	addi	s0,sp,128
     b04:	0305                	addi	t1,t1,1
     b06:	06090103          	lb	sp,96(s2)
     b0a:	0100                	addi	s0,sp,128
     b0c:	0105                	addi	sp,sp,1
     b0e:	04090103          	lb	sp,64(s2)
     b12:	0100                	addi	s0,sp,128
     b14:	0209                	addi	tp,tp,2 # 2 <_start-0x7ffffffe>
     b16:	0000                	unimp
     b18:	0101                	addi	sp,sp,0
     b1a:	0126                	slli	sp,sp,0x9
     b1c:	0000                	unimp
     b1e:	0005                	c.nop	1
     b20:	0008                	.2byte	0x8
     b22:	0049                	c.nop	18
     b24:	0000                	unimp
     b26:	0101                	addi	sp,sp,0
     b28:	fb01                	bnez	a4,a38 <_start-0x7ffff5c8>
     b2a:	0d0e                	slli	s10,s10,0x3
     b2c:	0100                	addi	s0,sp,128
     b2e:	0101                	addi	sp,sp,0
     b30:	0001                	nop
     b32:	0000                	unimp
     b34:	0001                	nop
     b36:	0100                	addi	s0,sp,128
     b38:	0101                	addi	sp,sp,0
     b3a:	051f 0000 0000      	.byte	0x1f, 0x05, 0x00, 0x00, 0x00, 0x00
     b40:	000002a3          	sb	zero,5(zero) # 5 <_start-0x7ffffffb>
     b44:	0069                	c.nop	26
     b46:	0000                	unimp
     b48:	00c9                	addi	ra,ra,18
     b4a:	0000                	unimp
     b4c:	018c                	addi	a1,sp,192
     b4e:	0000                	unimp
     b50:	0102                	c.slli64	sp
     b52:	021f 050f 02eb      	.byte	0x1f, 0x02, 0x0f, 0x05, 0xeb, 0x02
     b58:	0000                	unimp
     b5a:	eb01                	bnez	a4,b6a <_start-0x7ffff496>
     b5c:	0002                	c.slli64	zero
     b5e:	0100                	addi	s0,sp,128
     b60:	01fa                	slli	gp,gp,0x1e
     b62:	0000                	unimp
     b64:	0b02                	c.slli64	s6
     b66:	0002                	c.slli64	zero
     b68:	0300                	addi	s0,sp,384
     b6a:	0228                	addi	a0,sp,264
     b6c:	0000                	unimp
     b6e:	0504                	addi	s1,sp,640
     b70:	0032                	c.slli	zero,0xc
     b72:	0209                	addi	tp,tp,2 # 2 <_start-0x7ffffffe>
     b74:	0244                	addi	s1,sp,260
     b76:	8000                	.2byte	0x8000
     b78:	0000                	unimp
     b7a:	0000                	unimp
     b7c:	0516                	slli	a0,a0,0x5
     b7e:	09010303          	lb	t1,144(sp)
     b82:	0000                	unimp
     b84:	0501                	addi	a0,a0,0
     b86:	0601                	addi	a2,a2,0
     b88:	12090103          	lb	sp,288(s2)
     b8c:	0100                	addi	s0,sp,128
     b8e:	1f05                	addi	t5,t5,-31
     b90:	0306                	slli	t1,t1,0x1
     b92:	0902                	c.slli64	s2
     b94:	0002                	c.slli64	zero
     b96:	0501                	addi	a0,a0,0
     b98:	09010303          	lb	t1,144(sp)
     b9c:	0000                	unimp
     b9e:	0301                	addi	t1,t1,0
     ba0:	0901                	addi	s2,s2,0
     ba2:	0000                	unimp
     ba4:	0501                	addi	a0,a0,0
     ba6:	0302                	c.slli64	t1
     ba8:	0902                	c.slli64	s2
     baa:	0000                	unimp
     bac:	0501                	addi	a0,a0,0
     bae:	09010303          	lb	t1,144(sp)
     bb2:	0000                	unimp
     bb4:	0301                	addi	t1,t1,0
     bb6:	0901                	addi	s2,s2,0
     bb8:	0000                	unimp
     bba:	0501                	addi	a0,a0,0
     bbc:	032e                	slli	t1,t1,0xb
     bbe:	0901                	addi	s2,s2,0
     bc0:	0000                	unimp
     bc2:	0501                	addi	a0,a0,0
     bc4:	0302                	c.slli64	t1
     bc6:	0902                	c.slli64	s2
     bc8:	0000                	unimp
     bca:	0501                	addi	a0,a0,0
     bcc:	7c03060b          	.4byte	0x7c03060b
     bd0:	0009                	c.nop	2
     bd2:	0100                	addi	s0,sp,128
     bd4:	04090403          	lb	s0,64(s2)
     bd8:	0100                	addi	s0,sp,128
     bda:	2605                	addiw	a2,a2,1
     bdc:	04090003          	lb	zero,64(s2)
     be0:	0100                	addi	s0,sp,128
     be2:	1e05                	addi	t3,t3,-31
     be4:	04090003          	lb	zero,64(s2)
     be8:	0100                	addi	s0,sp,128
     bea:	0105                	addi	sp,sp,1
     bec:	02090103          	lb	sp,32(s2)
     bf0:	0100                	addi	s0,sp,128
     bf2:	2b05                	addiw	s6,s6,1
     bf4:	0306                	slli	t1,t1,0x1
     bf6:	0902                	c.slli64	s2
     bf8:	0004                	.2byte	0x4
     bfa:	0501                	addi	a0,a0,0
     bfc:	09010303          	lb	t1,144(sp)
     c00:	0000                	unimp
     c02:	0501                	addi	a0,a0,0
     c04:	0302                	c.slli64	t1
     c06:	0901                	addi	s2,s2,0
     c08:	0000                	unimp
     c0a:	0501                	addi	a0,a0,0
     c0c:	0624                	addi	s1,sp,776
     c0e:	00090003          	lb	zero,0(s2)
     c12:	0100                	addi	s0,sp,128
     c14:	2605                	addiw	a2,a2,1
     c16:	04090003          	lb	zero,64(s2)
     c1a:	0100                	addi	s0,sp,128
     c1c:	0205                	addi	tp,tp,1 # 1 <_start-0x7fffffff>
     c1e:	0306                	slli	t1,t1,0x1
     c20:	0901                	addi	s2,s2,0
     c22:	0002                	c.slli64	zero
     c24:	0501                	addi	a0,a0,0
     c26:	063a                	slli	a2,a2,0xe
     c28:	00090003          	lb	zero,0(s2)
     c2c:	0100                	addi	s0,sp,128
     c2e:	2a05                	addiw	s4,s4,1
     c30:	02090003          	lb	zero,32(s2)
     c34:	0100                	addi	s0,sp,128
     c36:	0105                	addi	sp,sp,1
     c38:	02090103          	lb	sp,32(s2)
     c3c:	0100                	addi	s0,sp,128
     c3e:	0209                	addi	tp,tp,2 # 2 <_start-0x7ffffffe>
     c40:	0000                	unimp
     c42:	0101                	addi	sp,sp,0
     c44:	00df 0000 0005      	.byte	0xdf, 0x00, 0x00, 0x00, 0x05, 0x00
     c4a:	0008                	.2byte	0x8
     c4c:	004e                	c.slli	zero,0x13
     c4e:	0000                	unimp
     c50:	0101                	addi	sp,sp,0
     c52:	fb01                	bnez	a4,b62 <_start-0x7ffff49e>
     c54:	0d0e                	slli	s10,s10,0x3
     c56:	0100                	addi	s0,sp,128
     c58:	0101                	addi	sp,sp,0
     c5a:	0001                	nop
     c5c:	0000                	unimp
     c5e:	0001                	nop
     c60:	0100                	addi	s0,sp,128
     c62:	0101                	addi	sp,sp,0
     c64:	051f 0000 0000      	.byte	0x1f, 0x05, 0x00, 0x00, 0x00, 0x00
     c6a:	000002a3          	sb	zero,5(zero) # 5 <_start-0x7ffffffb>
     c6e:	0069                	c.nop	26
     c70:	0000                	unimp
     c72:	00c9                	addi	ra,ra,18
     c74:	0000                	unimp
     c76:	018c                	addi	a1,sp,192
     c78:	0000                	unimp
     c7a:	0102                	c.slli64	sp
     c7c:	021f 060f 0309      	.byte	0x1f, 0x02, 0x0f, 0x06, 0x09, 0x03
     c82:	0000                	unimp
     c84:	0901                	addi	s2,s2,0
     c86:	01000003          	lb	zero,16(zero) # 10 <_start-0x7ffffff0>
     c8a:	01fa                	slli	gp,gp,0x1e
     c8c:	0000                	unimp
     c8e:	0b02                	c.slli64	s6
     c90:	0002                	c.slli64	zero
     c92:	0300                	addi	s0,sp,384
     c94:	0228                	addi	a0,sp,264
     c96:	0000                	unimp
     c98:	1904                	addi	s1,sp,176
     c9a:	04000003          	lb	zero,64(zero) # 40 <_start-0x7fffffc0>
     c9e:	3705                	addiw	a4,a4,-31
     ca0:	0900                	addi	s0,sp,144
     ca2:	7602                	ld	a2,32(sp)
     ca4:	0002                	c.slli64	zero
     ca6:	0080                	addi	s0,sp,64
     ca8:	0000                	unimp
     caa:	1500                	addi	s0,sp,672
     cac:	0305                	addi	t1,t1,1
     cae:	00090103          	lb	sp,0(s2)
     cb2:	0100                	addi	s0,sp,128
     cb4:	0105                	addi	sp,sp,1
     cb6:	0306                	slli	t1,t1,0x1
     cb8:	0901                	addi	s2,s2,0
     cba:	0006                	c.slli	zero,0x1
     cbc:	0501                	addi	a0,a0,0
     cbe:	063d                	addi	a2,a2,15
     cc0:	02090203          	lb	tp,32(s2)
     cc4:	0100                	addi	s0,sp,128
     cc6:	0305                	addi	t1,t1,1
     cc8:	00090103          	lb	sp,0(s2)
     ccc:	0100                	addi	s0,sp,128
     cce:	0a05                	addi	s4,s4,1
     cd0:	0306                	slli	t1,t1,0x1
     cd2:	0900                	addi	s0,sp,144
     cd4:	0000                	unimp
     cd6:	0501                	addi	a0,a0,0
     cd8:	0339                	addi	t1,t1,14
     cda:	0900                	addi	s0,sp,144
     cdc:	0002                	c.slli64	zero
     cde:	0501                	addi	a0,a0,0
     ce0:	0301                	addi	t1,t1,0
     ce2:	0901                	addi	s2,s2,0
     ce4:	0002                	c.slli64	zero
     ce6:	0501                	addi	a0,a0,0
     ce8:	064a                	slli	a2,a2,0x12
     cea:	06090203          	lb	tp,96(s2)
     cee:	0100                	addi	s0,sp,128
     cf0:	0305                	addi	t1,t1,1
     cf2:	00090103          	lb	sp,0(s2)
     cf6:	0100                	addi	s0,sp,128
     cf8:	0505                	addi	a0,a0,1
     cfa:	0306                	slli	t1,t1,0x1
     cfc:	0901                	addi	s2,s2,0
     cfe:	0000                	unimp
     d00:	0501                	addi	a0,a0,0
     d02:	0306                	slli	t1,t1,0x1
     d04:	097f                	.2byte	0x97f
     d06:	0002                	c.slli64	zero
     d08:	0501                	addi	a0,a0,0
     d0a:	0605                	addi	a2,a2,1
     d0c:	02090103          	lb	sp,32(s2)
     d10:	0100                	addi	s0,sp,128
     d12:	06090303          	lb	t1,96(s2)
     d16:	0100                	addi	s0,sp,128
     d18:	0105                	addi	sp,sp,1
     d1a:	0306                	slli	t1,t1,0x1
     d1c:	0902                	c.slli64	s2
     d1e:	0008                	.2byte	0x8
     d20:	0901                	addi	s2,s2,0
     d22:	0002                	c.slli64	zero
     d24:	0100                	addi	s0,sp,128
     d26:	3101                	addiw	sp,sp,-32
     d28:	0000                	unimp
     d2a:	0500                	addi	s0,sp,640
     d2c:	0800                	addi	s0,sp,16
     d2e:	2900                	fld	fs0,16(a0)
     d30:	0000                	unimp
     d32:	0100                	addi	s0,sp,128
     d34:	0101                	addi	sp,sp,0
     d36:	000d0efb          	.4byte	0xd0efb
     d3a:	0101                	addi	sp,sp,0
     d3c:	0101                	addi	sp,sp,0
     d3e:	0000                	unimp
     d40:	0100                	addi	s0,sp,128
     d42:	0000                	unimp
     d44:	0101                	addi	sp,sp,0
     d46:	1f01                	addi	t5,t5,-32
     d48:	0002                	c.slli64	zero
     d4a:	0000                	unimp
     d4c:	a300                	fsd	fs0,0(a4)
     d4e:	0002                	c.slli64	zero
     d50:	0200                	addi	s0,sp,256
     d52:	1f01                	addi	t5,t5,-32
     d54:	0f02                	c.slli64	t5
     d56:	3601                	addiw	a2,a2,-32
     d58:	01000003          	lb	zero,16(zero) # 10 <_start-0x7ffffff0>
     d5c:	0052                	c.slli	zero,0x14
     d5e:	0000                	unimp
     d60:	0005                	c.nop	1
     d62:	0008                	.2byte	0x8
     d64:	002e                	c.slli	zero,0xb
     d66:	0000                	unimp
     d68:	0101                	addi	sp,sp,0
     d6a:	fb01                	bnez	a4,c7a <_start-0x7ffff386>
     d6c:	0d0e                	slli	s10,s10,0x3
     d6e:	0100                	addi	s0,sp,128
     d70:	0101                	addi	sp,sp,0
     d72:	0001                	nop
     d74:	0000                	unimp
     d76:	0001                	nop
     d78:	0100                	addi	s0,sp,128
     d7a:	0101                	addi	sp,sp,0
     d7c:	021f 0000 0000      	.byte	0x1f, 0x02, 0x00, 0x00, 0x00, 0x00
     d82:	000002a3          	sb	zero,5(zero) # 5 <_start-0x7ffffffb>
     d86:	0102                	c.slli64	sp
     d88:	021f 020f 0353      	.byte	0x1f, 0x02, 0x0f, 0x02, 0x53, 0x03
     d8e:	0000                	unimp
     d90:	5301                	li	t1,-32
     d92:	01000003          	lb	zero,16(zero) # 10 <_start-0x7ffffff0>
     d96:	2005                	.2byte	0x2005
     d98:	0900                	addi	s0,sp,144
     d9a:	9c02                	jalr	s8
     d9c:	0002                	c.slli64	zero
     d9e:	0080                	addi	s0,sp,64
     da0:	0000                	unimp
     da2:	1500                	addi	s0,sp,672
     da4:	0105                	addi	sp,sp,1
     da6:	00090203          	lb	tp,0(s2)
     daa:	0100                	addi	s0,sp,128
     dac:	0209                	addi	tp,tp,2 # 2 <_start-0x7ffffffe>
     dae:	0000                	unimp
     db0:	0101                	addi	sp,sp,0
     db2:	027a                	slli	tp,tp,0x1e
     db4:	0000                	unimp
     db6:	0005                	c.nop	1
     db8:	0008                	.2byte	0x8
     dba:	00000053          	fadd.s	ft0,ft0,ft0,rne
     dbe:	0101                	addi	sp,sp,0
     dc0:	fb01                	bnez	a4,cd0 <_start-0x7ffff330>
     dc2:	0d0e                	slli	s10,s10,0x3
     dc4:	0100                	addi	s0,sp,128
     dc6:	0101                	addi	sp,sp,0
     dc8:	0001                	nop
     dca:	0000                	unimp
     dcc:	0001                	nop
     dce:	0100                	addi	s0,sp,128
     dd0:	0101                	addi	sp,sp,0
     dd2:	051f 0000 0000      	.byte	0x1f, 0x05, 0x00, 0x00, 0x00, 0x00
     dd8:	000002a3          	sb	zero,5(zero) # 5 <_start-0x7ffffffb>
     ddc:	0069                	c.nop	26
     dde:	0000                	unimp
     de0:	00c9                	addi	ra,ra,18
     de2:	0000                	unimp
     de4:	018c                	addi	a1,sp,192
     de6:	0000                	unimp
     de8:	0102                	c.slli64	sp
     dea:	021f 070f 036f      	.byte	0x1f, 0x02, 0x0f, 0x07, 0x6f, 0x03
     df0:	0000                	unimp
     df2:	6f01                	.2byte	0x6f01
     df4:	01000003          	lb	zero,16(zero) # 10 <_start-0x7ffffff0>
     df8:	01fa                	slli	gp,gp,0x1e
     dfa:	0000                	unimp
     dfc:	0b02                	c.slli64	s6
     dfe:	0002                	c.slli64	zero
     e00:	0300                	addi	s0,sp,384
     e02:	021e                	slli	tp,tp,0x7
     e04:	0000                	unimp
     e06:	2804                	fld	fs1,16(s0)
     e08:	0002                	c.slli64	zero
     e0a:	0400                	addi	s0,sp,512
     e0c:	0000022f          	.4byte	0x22f
     e10:	0504                	addi	s1,sp,640
     e12:	0046                	c.slli	zero,0x11
     e14:	0209                	addi	tp,tp,2 # 2 <_start-0x7ffffffe>
     e16:	029e                	slli	t0,t0,0x7
     e18:	8000                	.2byte	0x8000
     e1a:	0000                	unimp
     e1c:	0000                	unimp
     e1e:	0515                	addi	a0,a0,5
     e20:	09010303          	lb	t1,144(sp)
     e24:	0000                	unimp
     e26:	0501                	addi	a0,a0,0
     e28:	061e                	slli	a2,a2,0x7
     e2a:	02090303          	lb	t1,32(s2)
     e2e:	0100                	addi	s0,sp,128
     e30:	0305                	addi	t1,t1,1
     e32:	02097d03          	.4byte	0x2097d03
     e36:	0100                	addi	s0,sp,128
     e38:	0306                	slli	t1,t1,0x1
     e3a:	0901                	addi	s2,s2,0
     e3c:	0006                	c.slli	zero,0x1
     e3e:	0301                	addi	t1,t1,0
     e40:	0902                	c.slli64	s2
     e42:	0008                	.2byte	0x8
     e44:	0501                	addi	a0,a0,0
     e46:	061e                	slli	a2,a2,0x7
     e48:	00090003          	lb	zero,0(s2)
     e4c:	0100                	addi	s0,sp,128
     e4e:	3505                	addiw	a0,a0,-31
     e50:	0c090003          	lb	zero,192(s2)
     e54:	0100                	addi	s0,sp,128
     e56:	0e05                	addi	t3,t3,1
     e58:	02090003          	lb	zero,32(s2)
     e5c:	0100                	addi	s0,sp,128
     e5e:	0105                	addi	sp,sp,1
     e60:	02090403          	lb	s0,32(s2)
     e64:	0100                	addi	s0,sp,128
     e66:	3605                	addiw	a2,a2,-31
     e68:	0306                	slli	t1,t1,0x1
     e6a:	0902                	c.slli64	s2
     e6c:	0002                	c.slli64	zero
     e6e:	0501                	addi	a0,a0,0
     e70:	09010303          	lb	t1,144(sp)
     e74:	0000                	unimp
     e76:	0501                	addi	a0,a0,0
     e78:	060a                	slli	a2,a2,0x2
     e7a:	00090003          	lb	zero,0(s2)
     e7e:	0100                	addi	s0,sp,128
     e80:	3a05                	addiw	s4,s4,-31
     e82:	02090003          	lb	zero,32(s2)
     e86:	0100                	addi	s0,sp,128
     e88:	0105                	addi	sp,sp,1
     e8a:	04090103          	lb	sp,64(s2)
     e8e:	0100                	addi	s0,sp,128
     e90:	3605                	addiw	a2,a2,-31
     e92:	0306                	slli	t1,t1,0x1
     e94:	0902                	c.slli64	s2
     e96:	0004                	.2byte	0x4
     e98:	0501                	addi	a0,a0,0
     e9a:	09010303          	lb	t1,144(sp)
     e9e:	0000                	unimp
     ea0:	0501                	addi	a0,a0,0
     ea2:	060a                	slli	a2,a2,0x2
     ea4:	00090003          	lb	zero,0(s2)
     ea8:	0100                	addi	s0,sp,128
     eaa:	3a05                	addiw	s4,s4,-31
     eac:	02090003          	lb	zero,32(s2)
     eb0:	0100                	addi	s0,sp,128
     eb2:	0105                	addi	sp,sp,1
     eb4:	04090103          	lb	sp,64(s2)
     eb8:	0100                	addi	s0,sp,128
     eba:	5e05                	li	t3,-31
     ebc:	0306                	slli	t1,t1,0x1
     ebe:	0902                	c.slli64	s2
     ec0:	0004                	.2byte	0x4
     ec2:	0501                	addi	a0,a0,0
     ec4:	09010303          	lb	t1,144(sp)
     ec8:	0000                	unimp
     eca:	0501                	addi	a0,a0,0
     ecc:	0900030f          	.4byte	0x900030f
     ed0:	0000                	unimp
     ed2:	0501                	addi	a0,a0,0
     ed4:	09080303          	lb	t1,144(a6)
     ed8:	0002                	c.slli64	zero
     eda:	0501                	addi	a0,a0,0
     edc:	0601                	addi	a2,a2,0
     ede:	00090103          	lb	sp,0(s2)
     ee2:	0100                	addi	s0,sp,128
     ee4:	0505                	addi	a0,a0,1
     ee6:	0200                	addi	s0,sp,256
     ee8:	0104                	addi	s1,sp,128
     eea:	0306                	slli	t1,t1,0x1
     eec:	097a                	slli	s2,s2,0x1e
     eee:	0004                	.2byte	0x4
     ef0:	0501                	addi	a0,a0,0
     ef2:	000c                	.2byte	0xc
     ef4:	0402                	c.slli64	s0
     ef6:	0301                	addi	t1,t1,0
     ef8:	097e                	slli	s2,s2,0x1f
     efa:	0000                	unimp
     efc:	0501                	addi	a0,a0,0
     efe:	04020003          	lb	zero,64(tp) # 40 <_start-0x7fffffc0>
     f02:	0301                	addi	t1,t1,0
     f04:	00000977          	.4byte	0x977
     f08:	0501                	addi	a0,a0,0
     f0a:	000a                	c.slli	zero,0x2
     f0c:	0402                	c.slli64	s0
     f0e:	0601                	addi	a2,a2,0
     f10:	00090003          	lb	zero,0(s2)
     f14:	0100                	addi	s0,sp,128
     f16:	3a05                	addiw	s4,s4,-31
     f18:	0200                	addi	s0,sp,256
     f1a:	0104                	addi	s1,sp,128
     f1c:	02090003          	lb	zero,32(s2)
     f20:	0100                	addi	s0,sp,128
     f22:	0c05                	addi	s8,s8,1
     f24:	0200                	addi	s0,sp,256
     f26:	0104                	addi	s1,sp,128
     f28:	04090903          	lb	s2,64(s2)
     f2c:	0100                	addi	s0,sp,128
     f2e:	0505                	addi	a0,a0,1
     f30:	0306                	slli	t1,t1,0x1
     f32:	00040903          	lb	s2,0(s0)
     f36:	0501                	addi	a0,a0,0
     f38:	0612                	slli	a2,a2,0x4
     f3a:	00090003          	lb	zero,0(s2)
     f3e:	0100                	addi	s0,sp,128
     f40:	0a05                	addi	s4,s4,1
     f42:	02090203          	lb	tp,32(s2)
     f46:	0100                	addi	s0,sp,128
     f48:	0b05                	addi	s6,s6,1
     f4a:	04097e03          	.4byte	0x4097e03
     f4e:	0100                	addi	s0,sp,128
     f50:	0505                	addi	a0,a0,1
     f52:	0306                	slli	t1,t1,0x1
     f54:	0901                	addi	s2,s2,0
     f56:	0004                	.2byte	0x4
     f58:	0501                	addi	a0,a0,0
     f5a:	060a                	slli	a2,a2,0x2
     f5c:	00090103          	lb	sp,0(s2)
     f60:	0100                	addi	s0,sp,128
     f62:	02097f03          	.4byte	0x2097f03
     f66:	0100                	addi	s0,sp,128
     f68:	0505                	addi	a0,a0,1
     f6a:	0306                	slli	t1,t1,0x1
     f6c:	0901                	addi	s2,s2,0
     f6e:	0002                	c.slli64	zero
     f70:	0501                	addi	a0,a0,0
     f72:	035f 0905 0002      	.byte	0x5f, 0x03, 0x05, 0x09, 0x02, 0x00
     f78:	0501                	addi	a0,a0,0
     f7a:	09010303          	lb	t1,144(sp)
     f7e:	0000                	unimp
     f80:	0501                	addi	a0,a0,0
     f82:	0900030f          	.4byte	0x900030f
     f86:	0000                	unimp
     f88:	0501                	addi	a0,a0,0
     f8a:	09080303          	lb	t1,144(a6)
     f8e:	0002                	c.slli64	zero
     f90:	0501                	addi	a0,a0,0
     f92:	0601                	addi	a2,a2,0
     f94:	00090103          	lb	sp,0(s2)
     f98:	0100                	addi	s0,sp,128
     f9a:	0505                	addi	a0,a0,1
     f9c:	0200                	addi	s0,sp,256
     f9e:	0104                	addi	s1,sp,128
     fa0:	0306                	slli	t1,t1,0x1
     fa2:	097a                	slli	s2,s2,0x1e
     fa4:	0004                	.2byte	0x4
     fa6:	0501                	addi	a0,a0,0
     fa8:	000c                	.2byte	0xc
     faa:	0402                	c.slli64	s0
     fac:	0301                	addi	t1,t1,0
     fae:	097e                	slli	s2,s2,0x1f
     fb0:	0000                	unimp
     fb2:	0501                	addi	a0,a0,0
     fb4:	04020003          	lb	zero,64(tp) # 40 <_start-0x7fffffc0>
     fb8:	0301                	addi	t1,t1,0
     fba:	0000096f          	jal	s2,fba <_start-0x7ffff046>
     fbe:	0501                	addi	a0,a0,0
     fc0:	000a                	c.slli	zero,0x2
     fc2:	0402                	c.slli64	s0
     fc4:	0601                	addi	a2,a2,0
     fc6:	00090003          	lb	zero,0(s2)
     fca:	0100                	addi	s0,sp,128
     fcc:	3a05                	addiw	s4,s4,-31
     fce:	0200                	addi	s0,sp,256
     fd0:	0104                	addi	s1,sp,128
     fd2:	02090003          	lb	zero,32(s2)
     fd6:	0100                	addi	s0,sp,128
     fd8:	0c05                	addi	s8,s8,1
     fda:	0200                	addi	s0,sp,256
     fdc:	0104                	addi	s1,sp,128
     fde:	04091103          	lh	sp,64(s2)
     fe2:	0100                	addi	s0,sp,128
     fe4:	0505                	addi	a0,a0,1
     fe6:	0306                	slli	t1,t1,0x1
     fe8:	00040903          	lb	s2,0(s0)
     fec:	0501                	addi	a0,a0,0
     fee:	0615                	addi	a2,a2,5
     ff0:	00090003          	lb	zero,0(s2)
     ff4:	0100                	addi	s0,sp,128
     ff6:	0a05                	addi	s4,s4,1
     ff8:	04090203          	lb	tp,64(s2)
     ffc:	0100                	addi	s0,sp,128
     ffe:	1305                	addi	t1,t1,-31
    1000:	04097e03          	.4byte	0x4097e03
    1004:	0100                	addi	s0,sp,128
    1006:	0505                	addi	a0,a0,1
    1008:	0306                	slli	t1,t1,0x1
    100a:	0901                	addi	s2,s2,0
    100c:	0002                	c.slli64	zero
    100e:	0501                	addi	a0,a0,0
    1010:	060a                	slli	a2,a2,0x2
    1012:	00090003          	lb	zero,0(s2)
    1016:	0100                	addi	s0,sp,128
    1018:	0505                	addi	a0,a0,1
    101a:	0306                	slli	t1,t1,0x1
    101c:	0901                	addi	s2,s2,0
    101e:	0002                	c.slli64	zero
    1020:	0501                	addi	a0,a0,0
    1022:	060a                	slli	a2,a2,0x2
    1024:	00090003          	lb	zero,0(s2)
    1028:	0100                	addi	s0,sp,128
    102a:	0409                	addi	s0,s0,2
    102c:	0000                	unimp
    102e:	0101                	addi	sp,sp,0

Disassembly of section .debug_line_str:

0000000000000000 <.debug_line_str>:
   0:	505c3a43          	fmadd.s	fs4,fs8,ft5,fa0,rup
   4:	6f72                	ld	t5,280(sp)
   6:	656a                	ld	a0,152(sp)
   8:	5c737463          	bgeu	t1,t2,5d0 <_start-0x7ffffa30>
   c:	6552                	ld	a0,272(sp)
   e:	6f70                	ld	a2,216(a4)
  10:	6f746973          	csrrsi	s2,0x6f7,8
  14:	6972                	ld	s2,280(sp)
  16:	7365                	lui	t1,0xffff9
  18:	735c                	ld	a5,160(a4)
  1a:	2d6d7563          	bgeu	s10,s6,2e4 <_start-0x7ffffd1c>
  1e:	2d76                	fld	fs10,344(sp)
  20:	7262                	ld	tp,56(sp)
  22:	6e69                	lui	t3,0x1a
  24:	5c707567          	.4byte	0x5c707567
  28:	735c7773          	csrrci	a4,0x735,24
  2c:	5f6d7563          	bgeu	s10,s6,616 <_start-0x7ffff9ea>
  30:	6966                	ld	s2,88(sp)
  32:	6d72                	ld	s10,280(sp)
  34:	65726177          	.4byte	0x65726177
  38:	6300                	ld	s0,0(a4)
  3a:	2f65726f          	jal	tp,57330 <_start-0x7ffa8cd0>
  3e:	72617473          	csrrci	s0,0x726,2
  42:	7574                	ld	a3,232(a0)
  44:	0070                	addi	a2,sp,12
  46:	72617473          	csrrci	s0,0x726,2
  4a:	7574                	ld	a3,232(a0)
  4c:	2e70                	fld	fa2,216(a2)
  4e:	6f630053          	.4byte	0x6f630053
  52:	6572                	ld	a0,280(sp)
  54:	6372732f          	.4byte	0x6372732f
  58:	69616d2f          	.4byte	0x69616d2f
  5c:	2e6e                	fld	ft8,216(sp)
  5e:	6f630063          	beq	t1,s6,73e <_start-0x7ffff8c2>
  62:	6572                	ld	a0,280(sp)
  64:	6372732f          	.4byte	0x6372732f
  68:	6300                	ld	s0,0(a4)
  6a:	5c3a                	lw	s8,172(sp)
  6c:	7375                	lui	t1,0xffffd
  6e:	7265                	lui	tp,0xffff9
  70:	6f6c5c73          	csrrwi	s8,0x6f6,24
  74:	6576                	ld	a0,344(sp)
  76:	5c6c                	lw	a1,124(s0)
  78:	7061                	c.lui	zero,0xffff8
  7a:	6470                	ld	a2,200(s0)
  7c:	7461                	lui	s0,0xffff8
  7e:	5c61                	li	s8,-8
  80:	6f72                	ld	t5,280(sp)
  82:	6d61                	lui	s10,0x18
  84:	6e69                	lui	t3,0x1a
  86:	70785c67          	.4byte	0x70785c67
  8a:	6361                	lui	t1,0x18
  8c:	69722d6b          	.4byte	0x69722d6b
  90:	2d766373          	csrrsi	t1,0x2d7,12
  94:	6f6e                	ld	t5,216(sp)
  96:	656e                	ld	a0,216(sp)
  98:	652d                	lui	a0,0xb
  9a:	666c                	ld	a1,200(a2)
  9c:	672d                	lui	a4,0xb
  9e:	312d6363          	bltu	s10,s2,3a4 <_start-0x7ffffc5c>
  a2:	2e32                	fld	ft8,264(sp)
  a4:	2e31                	addiw	t3,t3,12 # 1a00c <_start-0x7ffe5ff4>
  a6:	2d30                	fld	fa2,88(a0)
  a8:	5c32                	lw	s8,44(sp)
  aa:	6972                	ld	s2,280(sp)
  ac:	2d766373          	csrrsi	t1,0x2d7,12
  b0:	6f6e                	ld	t5,216(sp)
  b2:	656e                	ld	a0,216(sp)
  b4:	652d                	lui	a0,0xb
  b6:	666c                	ld	a1,200(a2)
  b8:	695c                	ld	a5,144(a0)
  ba:	636e                	ld	t1,216(sp)
  bc:	756c                	ld	a1,232(a0)
  be:	6564                	ld	s1,200(a0)
  c0:	6d5c                	ld	a5,152(a0)
  c2:	6361                	lui	t1,0x18
  c4:	6968                	ld	a0,208(a0)
  c6:	656e                	ld	a0,216(sp)
  c8:	6300                	ld	s0,0(a4)
  ca:	5c3a                	lw	s8,172(sp)
  cc:	7375                	lui	t1,0xffffd
  ce:	7265                	lui	tp,0xffff9
  d0:	6f6c5c73          	csrrwi	s8,0x6f6,24
  d4:	6576                	ld	a0,344(sp)
  d6:	5c6c                	lw	a1,124(s0)
  d8:	7061                	c.lui	zero,0xffff8
  da:	6470                	ld	a2,200(s0)
  dc:	7461                	lui	s0,0xffff8
  de:	5c61                	li	s8,-8
  e0:	6f72                	ld	t5,280(sp)
  e2:	6d61                	lui	s10,0x18
  e4:	6e69                	lui	t3,0x1a
  e6:	70785c67          	.4byte	0x70785c67
  ea:	6361                	lui	t1,0x18
  ec:	69722d6b          	.4byte	0x69722d6b
  f0:	2d766373          	csrrsi	t1,0x2d7,12
  f4:	6f6e                	ld	t5,216(sp)
  f6:	656e                	ld	a0,216(sp)
  f8:	652d                	lui	a0,0xb
  fa:	666c                	ld	a1,200(a2)
  fc:	672d                	lui	a4,0xb
  fe:	312d6363          	bltu	s10,s2,404 <_start-0x7ffffbfc>
 102:	2e32                	fld	ft8,264(sp)
 104:	2e31                	addiw	t3,t3,12 # 1a00c <_start-0x7ffe5ff4>
 106:	2d30                	fld	fa2,88(a0)
 108:	5c32                	lw	s8,44(sp)
 10a:	6972                	ld	s2,280(sp)
 10c:	2d766373          	csrrsi	t1,0x2d7,12
 110:	6f6e                	ld	t5,216(sp)
 112:	656e                	ld	a0,216(sp)
 114:	652d                	lui	a0,0xb
 116:	666c                	ld	a1,200(a2)
 118:	695c                	ld	a5,144(a0)
 11a:	636e                	ld	t1,216(sp)
 11c:	756c                	ld	a1,232(a0)
 11e:	6564                	ld	s1,200(a0)
 120:	735c                	ld	a5,160(a4)
 122:	7379                	lui	t1,0xffffe
 124:	6300                	ld	s0,0(a4)
 126:	5c3a                	lw	s8,172(sp)
 128:	7375                	lui	t1,0xffffd
 12a:	7265                	lui	tp,0xffff9
 12c:	6f6c5c73          	csrrwi	s8,0x6f6,24
 130:	6576                	ld	a0,344(sp)
 132:	5c6c                	lw	a1,124(s0)
 134:	7061                	c.lui	zero,0xffff8
 136:	6470                	ld	a2,200(s0)
 138:	7461                	lui	s0,0xffff8
 13a:	5c61                	li	s8,-8
 13c:	6f72                	ld	t5,280(sp)
 13e:	6d61                	lui	s10,0x18
 140:	6e69                	lui	t3,0x1a
 142:	70785c67          	.4byte	0x70785c67
 146:	6361                	lui	t1,0x18
 148:	69722d6b          	.4byte	0x69722d6b
 14c:	2d766373          	csrrsi	t1,0x2d7,12
 150:	6f6e                	ld	t5,216(sp)
 152:	656e                	ld	a0,216(sp)
 154:	652d                	lui	a0,0xb
 156:	666c                	ld	a1,200(a2)
 158:	672d                	lui	a4,0xb
 15a:	312d6363          	bltu	s10,s2,460 <_start-0x7ffffba0>
 15e:	2e32                	fld	ft8,264(sp)
 160:	2e31                	addiw	t3,t3,12 # 1a00c <_start-0x7ffe5ff4>
 162:	2d30                	fld	fa2,88(a0)
 164:	5c32                	lw	s8,44(sp)
 166:	696c                	ld	a1,208(a0)
 168:	5c62                	lw	s8,56(sp)
 16a:	5c636367          	.4byte	0x5c636367
 16e:	6972                	ld	s2,280(sp)
 170:	2d766373          	csrrsi	t1,0x2d7,12
 174:	6f6e                	ld	t5,216(sp)
 176:	656e                	ld	a0,216(sp)
 178:	652d                	lui	a0,0xb
 17a:	666c                	ld	a1,200(a2)
 17c:	315c                	fld	fa5,160(a0)
 17e:	2e32                	fld	ft8,264(sp)
 180:	2e31                	addiw	t3,t3,12
 182:	5c30                	lw	a2,120(s0)
 184:	6e69                	lui	t3,0x1a
 186:	64756c63          	bltu	a0,t2,7de <_start-0x7ffff822>
 18a:	0065                	c.nop	25
 18c:	7362                	ld	t1,56(sp)
 18e:	2f70                	fld	fa2,216(a4)
 190:	6d756373          	csrrsi	t1,0x6d7,10
 194:	636e692f          	.4byte	0x636e692f
 198:	6300                	ld	s0,0(a4)
 19a:	5c3a                	lw	s8,172(sp)
 19c:	7375                	lui	t1,0xffffd
 19e:	7265                	lui	tp,0xffff9
 1a0:	6f6c5c73          	csrrwi	s8,0x6f6,24
 1a4:	6576                	ld	a0,344(sp)
 1a6:	5c6c                	lw	a1,124(s0)
 1a8:	7061                	c.lui	zero,0xffff8
 1aa:	6470                	ld	a2,200(s0)
 1ac:	7461                	lui	s0,0xffff8
 1ae:	5c61                	li	s8,-8
 1b0:	6f72                	ld	t5,280(sp)
 1b2:	6d61                	lui	s10,0x18
 1b4:	6e69                	lui	t3,0x1a
 1b6:	70785c67          	.4byte	0x70785c67
 1ba:	6361                	lui	t1,0x18
 1bc:	69722d6b          	.4byte	0x69722d6b
 1c0:	2d766373          	csrrsi	t1,0x2d7,12
 1c4:	6f6e                	ld	t5,216(sp)
 1c6:	656e                	ld	a0,216(sp)
 1c8:	652d                	lui	a0,0xb
 1ca:	666c                	ld	a1,200(a2)
 1cc:	672d                	lui	a4,0xb
 1ce:	312d6363          	bltu	s10,s2,4d4 <_start-0x7ffffb2c>
 1d2:	2e32                	fld	ft8,264(sp)
 1d4:	2e31                	addiw	t3,t3,12 # 1a00c <_start-0x7ffe5ff4>
 1d6:	2d30                	fld	fa2,88(a0)
 1d8:	5c32                	lw	s8,44(sp)
 1da:	6972                	ld	s2,280(sp)
 1dc:	2d766373          	csrrsi	t1,0x2d7,12
 1e0:	6f6e                	ld	t5,216(sp)
 1e2:	656e                	ld	a0,216(sp)
 1e4:	652d                	lui	a0,0xb
 1e6:	666c                	ld	a1,200(a2)
 1e8:	695c                	ld	a5,144(a0)
 1ea:	636e                	ld	t1,216(sp)
 1ec:	756c                	ld	a1,232(a0)
 1ee:	6564                	ld	s1,200(a0)
 1f0:	6300                	ld	s0,0(a4)
 1f2:	2f65726f          	jal	tp,574e8 <_start-0x7ffa8b18>
 1f6:	6e69                	lui	t3,0x1a
 1f8:	645f0063          	beq	t5,t0,838 <_start-0x7ffff7c8>
 1fc:	6665                	lui	a2,0x19
 1fe:	7561                	lui	a0,0xffff8
 200:	746c                	ld	a1,232(s0)
 202:	745f 7079 7365      	.byte	0x5f, 0x74, 0x79, 0x70, 0x65, 0x73
 208:	682e                	ld	a6,200(sp)
 20a:	5f00                	lw	s0,56(a4)
 20c:	69647473          	csrrci	s0,0x696,8
 210:	746e                	ld	s0,248(sp)
 212:	682e                	ld	a6,200(sp)
 214:	7300                	ld	s0,32(a4)
 216:	6474                	ld	a3,200(s0)
 218:	6564                	ld	s1,200(a0)
 21a:	2e66                	fld	ft8,88(sp)
 21c:	0068                	addi	a0,sp,12
 21e:	7672                	ld	a2,312(sp)
 220:	635f 726f 2e65      	.byte	0x5f, 0x63, 0x6f, 0x72, 0x65, 0x2e
 226:	0068                	addi	a0,sp,12
 228:	6d756373          	csrrsi	t1,0x6d7,10
 22c:	682e                	ld	a6,200(sp)
 22e:	7300                	ld	s0,32(a4)
 230:	5f6d7563          	bgeu	s10,s6,81a <_start-0x7ffff7e6>
 234:	6168                	ld	a0,192(a0)
 236:	5f6c                	lw	a1,124(a4)
 238:	6175                	addi	sp,sp,368
 23a:	7472                	ld	s0,312(sp)
 23c:	682e                	ld	a6,200(sp)
 23e:	7300                	ld	s0,32(a4)
 240:	7274                	ld	a3,224(a2)
 242:	6e69                	lui	t3,0x1a
 244:	00682e67          	.4byte	0x682e67
 248:	69647473          	csrrci	s0,0x696,8
 24c:	00682e6f          	jal	t3,82252 <_start-0x7ff7ddae>
 250:	6d756373          	csrrsi	t1,0x6d7,10
 254:	685f 6c61 682e      	.byte	0x5f, 0x68, 0x61, 0x6c, 0x2e, 0x68
 25a:	7300                	ld	s0,32(a4)
 25c:	5f6d7563          	bgeu	s10,s6,846 <_start-0x7ffff7ba>
 260:	74737973          	csrrci	s2,0x747,6
 264:	6d65                	lui	s10,0x19
 266:	682e                	ld	a6,200(sp)
 268:	3c00                	fld	fs0,56(s0)
 26a:	7562                	ld	a0,56(sp)
 26c:	6c69                	lui	s8,0x1a
 26e:	2d74                	fld	fa3,216(a0)
 270:	6e69                	lui	t3,0x1a
 272:	003e                	c.slli	zero,0xf
 274:	65726f63          	bltu	tp,s7,8d2 <_start-0x7ffff72e>
 278:	6372732f          	.4byte	0x6372732f
 27c:	7563732f          	.4byte	0x7563732f
 280:	5f6d                	li	t5,-5
 282:	74737973          	csrrci	s2,0x747,6
 286:	6d65                	lui	s10,0x19
 288:	632e                	ld	t1,200(sp)
 28a:	6200                	ld	s0,0(a2)
 28c:	732f7073          	csrci	0x732,30
 290:	2f6d7563          	bgeu	s10,s6,57a <_start-0x7ffffa86>
 294:	2f637273          	csrrci	tp,0x2f6,6
 298:	6d756373          	csrrsi	t1,0x6d7,10
 29c:	685f 6c61 632e      	.byte	0x5f, 0x68, 0x61, 0x6c, 0x2e, 0x63
 2a2:	6200                	ld	s0,0(a2)
 2a4:	732f7073          	csrci	0x732,30
 2a8:	2f6d7563          	bgeu	s10,s6,592 <_start-0x7ffffa6e>
 2ac:	00637273          	csrrci	tp,0x6,6
 2b0:	6d756373          	csrrsi	t1,0x6d7,10
 2b4:	685f 6c61 635f      	.byte	0x5f, 0x68, 0x61, 0x6c, 0x5f, 0x63
 2ba:	696c                	ld	a1,208(a0)
 2bc:	746e                	ld	s0,248(sp)
 2be:	682e                	ld	a6,200(sp)
 2c0:	6200                	ld	s0,0(a2)
 2c2:	732f7073          	csrci	0x732,30
 2c6:	2f6d7563          	bgeu	s10,s6,5b0 <_start-0x7ffffa50>
 2ca:	2f637273          	csrrci	tp,0x2f6,6
 2ce:	6d756373          	csrrsi	t1,0x6d7,10
 2d2:	685f 6c61 635f      	.byte	0x5f, 0x68, 0x61, 0x6c, 0x5f, 0x63
 2d8:	2e65726f          	jal	tp,575be <_start-0x7ffa8a42>
 2dc:	73620063          	beq	tp,s6,9fc <_start-0x7ffff604>
 2e0:	2f70                	fld	fa2,216(a4)
 2e2:	6d756373          	csrrsi	t1,0x6d7,10
 2e6:	6372732f          	.4byte	0x6372732f
 2ea:	7563732f          	.4byte	0x7563732f
 2ee:	5f6d                	li	t5,-5
 2f0:	6168                	ld	a0,192(a0)
 2f2:	5f6c                	lw	a1,124(a4)
 2f4:	6e696c63          	bltu	s2,t1,9ec <_start-0x7ffff614>
 2f8:	2e74                	fld	fa3,216(a2)
 2fa:	73620063          	beq	tp,s6,a1a <_start-0x7ffff5e6>
 2fe:	2f70                	fld	fa2,216(a4)
 300:	6d756373          	csrrsi	t1,0x6d7,10
 304:	6372732f          	.4byte	0x6372732f
 308:	7563732f          	.4byte	0x7563732f
 30c:	5f6d                	li	t5,-5
 30e:	6168                	ld	a0,192(a0)
 310:	5f6c                	lw	a1,124(a4)
 312:	6f697067          	.4byte	0x6f697067
 316:	632e                	ld	t1,200(sp)
 318:	7300                	ld	s0,32(a4)
 31a:	5f6d7563          	bgeu	s10,s6,904 <_start-0x7ffff6fc>
 31e:	6168                	ld	a0,192(a0)
 320:	5f6c                	lw	a1,124(a4)
 322:	6f697067          	.4byte	0x6f697067
 326:	682e                	ld	a6,200(sp)
 328:	6200                	ld	s0,0(a2)
 32a:	732f7073          	csrci	0x732,30
 32e:	2f6d7563          	bgeu	s10,s6,618 <_start-0x7ffff9e8>
 332:	2f637273          	csrrci	tp,0x2f6,6
 336:	6d756373          	csrrsi	t1,0x6d7,10
 33a:	685f 6c61 705f      	.byte	0x5f, 0x68, 0x61, 0x6c, 0x5f, 0x70
 340:	696c                	ld	a1,208(a0)
 342:	00632e63          	.4byte	0x632e63
 346:	7362                	ld	t1,56(sp)
 348:	2f70                	fld	fa2,216(a4)
 34a:	6d756373          	csrrsi	t1,0x6d7,10
 34e:	6372732f          	.4byte	0x6372732f
 352:	7563732f          	.4byte	0x7563732f
 356:	5f6d                	li	t5,-5
 358:	6168                	ld	a0,192(a0)
 35a:	5f6c                	lw	a1,124(a4)
 35c:	6372                	ld	t1,280(sp)
 35e:	00632e63          	.4byte	0x632e63
 362:	7362                	ld	t1,56(sp)
 364:	2f70                	fld	fa2,216(a4)
 366:	6d756373          	csrrsi	t1,0x6d7,10
 36a:	6372732f          	.4byte	0x6372732f
 36e:	7563732f          	.4byte	0x7563732f
 372:	5f6d                	li	t5,-5
 374:	6168                	ld	a0,192(a0)
 376:	5f6c                	lw	a1,124(a4)
 378:	6175                	addi	sp,sp,368
 37a:	7472                	ld	s0,312(sp)
 37c:	632e                	ld	t1,200(sp)
	...

Disassembly of section .debug_info:

0000000000000000 <.debug_info>:
       0:	001f 0000 0005      	.byte	0x1f, 0x00, 0x00, 0x00, 0x05, 0x00
       6:	0801                	addi	a6,a6,0
       8:	0000                	unimp
       a:	0000                	unimp
       c:	0001                	nop
       e:	0000                	unimp
      10:	0c00                	addi	s0,sp,528
      12:	0000                	unimp
      14:	0000                	unimp
      16:	0000                	unimp
      18:	1700                	addi	s0,sp,928
      1a:	0000                	unimp
      1c:	5000                	lw	s0,32(s0)
      1e:	0000                	unimp
      20:	0100                	addi	s0,sp,128
      22:	0680                	addi	s0,sp,832
      24:	05000007          	.4byte	0x5000007
      28:	0100                	addi	s0,sp,128
      2a:	1208                	addi	a0,sp,288
      2c:	0000                	unimp
      2e:	1700                	addi	s0,sp,928
      30:	01ca                	slli	gp,gp,0x12
      32:	0000                	unimp
      34:	501d                	c.li	zero,-25
      36:	0000                	unimp
      38:	0000                	unimp
      3a:	0000                	unimp
      3c:	2f00                	fld	fs0,24(a4)
	...
      46:	0000                	unimp
      48:	eb00                	sd	s0,16(a4)
      4a:	0002                	c.slli64	zero
      4c:	0300                	addi	s0,sp,384
      4e:	0404                	addi	s1,sp,512
      50:	010a                	slli	sp,sp,0x2
      52:	0000                	unimp
      54:	b5040803          	lb	a6,-1200(s0) # ffffffffffff7b50 <__global_pointer$+0xffffffff7fff5ee8>
      58:	0001                	nop
      5a:	0300                	addi	s0,sp,384
      5c:	0601                	addi	a2,a2,0 # 19000 <_start-0x7ffe7000>
      5e:	01be                	slli	gp,gp,0xf
      60:	0000                	unimp
      62:	6502                	ld	a0,0(sp)
      64:	0001                	nop
      66:	0200                	addi	s0,sp,256
      68:	004b182b          	.4byte	0x4b182b
      6c:	0000                	unimp
      6e:	bc080103          	lb	sp,-1088(a6)
      72:	0001                	nop
      74:	0300                	addi	s0,sp,384
      76:	0502                	c.slli64	a0
      78:	00a5                	addi	ra,ra,9
      7a:	0000                	unimp
      7c:	d802                	sw	zero,48(sp)
      7e:	0000                	unimp
      80:	0200                	addi	s0,sp,256
      82:	1939                	addi	s2,s2,-18
      84:	0065                	c.nop	25
      86:	0000                	unimp
      88:	bb070203          	lb	tp,-1104(a4) # abb0 <_start-0x7fff5450>
      8c:	0002                	c.slli64	zero
      8e:	0200                	addi	s0,sp,256
      90:	00000317          	auipc	t1,0x0
      94:	4d02                	lw	s10,0(sp)
      96:	7818                	ld	a4,48(s0)
      98:	0000                	unimp
      9a:	1800                	addi	s0,sp,48
      9c:	0504                	addi	s1,sp,640
      9e:	6e69                	lui	t3,0x1a
      a0:	0074                	addi	a3,sp,12
      a2:	00007813          	andi	a6,zero,0
      a6:	0200                	addi	s0,sp,256
      a8:	00cd                	addi	ra,ra,19
      aa:	0000                	unimp
      ac:	4f02                	lw	t5,0(sp)
      ae:	9019                	srli	s0,s0,0x26
      b0:	0000                	unimp
      b2:	0300                	addi	s0,sp,384
      b4:	0704                	addi	s1,sp,896
      b6:	028c                	addi	a1,sp,320
      b8:	0000                	unimp
      ba:	15050803          	lb	a6,336(a0) # ffffffffffff8150 <__global_pointer$+0xffffffff7fff64e8>
      be:	0001                	nop
      c0:	0200                	addi	s0,sp,256
      c2:	02df 0000 6902      	.byte	0xdf, 0x02, 0x00, 0x00, 0x02, 0x69
      c8:	aa19                	j	1de <_start-0x7ffffe22>
      ca:	0000                	unimp
      cc:	0300                	addi	s0,sp,384
      ce:	0708                	addi	a0,sp,896
      d0:	00000287          	.4byte	0x287
      d4:	6702                	ld	a4,0(sp)
      d6:	0001                	nop
      d8:	0300                	addi	s0,sp,384
      da:	1318                	addi	a4,sp,416
      dc:	0000003f 0000da02 	.8byte	0xda020000003f
      e4:	0300                	addi	s0,sp,384
      e6:	1424                	addi	s1,sp,552
      e8:	0059                	c.nop	22
      ea:	0000                	unimp
      ec:	1902                	slli	s2,s2,0x20
      ee:	03000003          	lb	zero,48(zero) # 30 <_start-0x7fffffd0>
      f2:	132c                	addi	a1,sp,424
      f4:	006c                	addi	a1,sp,12
      f6:	0000                	unimp
      f8:	cf02                	sw	zero,156(sp)
      fa:	0000                	unimp
      fc:	0300                	addi	s0,sp,384
      fe:	1430                	addi	a2,sp,552
     100:	0084                	addi	s1,sp,64
     102:	0000                	unimp
     104:	0000d513          	srli	a0,ra,0x0
     108:	0a00                	addi	s0,sp,272
     10a:	00e1                	addi	ra,ra,24
     10c:	0000                	unimp
     10e:	e102                	sd	zero,128(sp)
     110:	0002                	c.slli64	zero
     112:	0300                	addi	s0,sp,384
     114:	143c                	addi	a5,sp,552
     116:	009e                	slli	ra,ra,0x7
     118:	0000                	unimp
     11a:	af02                	fsd	ft0,408(sp)
     11c:	0000                	unimp
     11e:	0400                	addi	s0,sp,512
     120:	17d6                	slli	a5,a5,0x35
     122:	00aa                	slli	ra,ra,0xa
     124:	0000                	unimp
     126:	10050803          	lb	a6,256(a0)
     12a:	0001                	nop
     12c:	0300                	addi	s0,sp,384
     12e:	0410                	addi	a2,sp,512
     130:	01b0                	addi	a2,sp,200
     132:	0000                	unimp
     134:	1606                	slli	a2,a2,0x21
     136:	0001                	nop
     138:	0300                	addi	s0,sp,384
     13a:	0801                	addi	a6,a6,0
     13c:	01c5                	addi	gp,gp,17 # 80001c79 <__global_pointer$+0x11>
     13e:	0000                	unimp
     140:	160a                	slli	a2,a2,0x22
     142:	0001                	nop
     144:	0600                	addi	s0,sp,768
     146:	011d                	addi	sp,sp,7
     148:	0000                	unimp
     14a:	82070803          	lb	a6,-2016(a4)
     14e:	0002                	c.slli64	zero
     150:	1900                	addi	s0,sp,176
     152:	00900407          	.4byte	0x900407
     156:	0000                	unimp
     158:	1805                	addi	a6,a6,-31
     15a:	540e                	lw	s0,224(sp)
     15c:	0001                	nop
     15e:	1a00                	addi	s0,sp,304
     160:	00004b4f          	fnmadd.s	fs6,ft0,ft0,ft0,rmm
     164:	840d                	srai	s0,s0,0x3
     166:	0001                	nop
     168:	0100                	addi	s0,sp,128
     16a:	a20d                	j	28c <_start-0x7ffffd74>
     16c:	0001                	nop
     16e:	0200                	addi	s0,sp,256
     170:	300d                	.2byte	0x300d
     172:	0001                	nop
     174:	0300                	addi	s0,sp,384
     176:	0200                	addi	s0,sp,256
     178:	0332                	slli	t1,t1,0xc
     17a:	0000                	unimp
     17c:	1d05                	addi	s10,s10,-31 # 18fe1 <_start-0x7ffe701f>
     17e:	00012e03          	lw	t3,0(sp)
     182:	1400                	addi	s0,sp,544
     184:	061c                	addi	a5,sp,768
     186:	bc46                	fsd	fa7,56(sp)
     188:	0001                	nop
     18a:	0700                	addi	s0,sp,896
     18c:	0350                	addi	a2,sp,388
     18e:	0000                	unimp
     190:	4706                	lw	a4,64(sp)
     192:	e111                	bnez	a0,196 <_start-0x7ffffe6a>
     194:	0000                	unimp
     196:	0000                	unimp
     198:	00035707          	.4byte	0x35707
     19c:	0600                	addi	s0,sp,768
     19e:	1148                	addi	a0,sp,164
     1a0:	00e6                	slli	ra,ra,0x19
     1a2:	0000                	unimp
     1a4:	0704                	addi	s1,sp,896
     1a6:	0370                	addi	a2,sp,396
     1a8:	0000                	unimp
     1aa:	4906                	lw	s2,64(sp)
     1ac:	e111                	bnez	a0,1b0 <_start-0x7ffffe50>
     1ae:	0000                	unimp
     1b0:	0800                	addi	s0,sp,16
     1b2:	00037707          	.4byte	0x37707
     1b6:	0600                	addi	s0,sp,768
     1b8:	114a                	slli	sp,sp,0x32
     1ba:	00e1                	addi	ra,ra,24
     1bc:	0000                	unimp
     1be:	0e0c                	addi	a1,sp,784
     1c0:	4549                	li	a0,18
     1c2:	4b00                	lw	s0,16(a4)
     1c4:	00e1                	addi	ra,ra,24
     1c6:	0000                	unimp
     1c8:	0e10                	addi	a2,sp,784
     1ca:	5049                	c.li	zero,-14
     1cc:	4c00                	lw	s0,24(s0)
     1ce:	00e6                	slli	ra,ra,0x19
     1d0:	0000                	unimp
     1d2:	0e14                	addi	a3,sp,784
     1d4:	4944                	lw	s1,20(a0)
     1d6:	0056                	c.slli	zero,0x15
     1d8:	e14d                	bnez	a0,27a <_start-0x7ffffd86>
     1da:	0000                	unimp
     1dc:	1800                	addi	s0,sp,48
     1de:	0200                	addi	s0,sp,256
     1e0:	02ea                	slli	t0,t0,0x1a
     1e2:	0000                	unimp
     1e4:	4e06                	lw	t3,64(sp)
     1e6:	00016003          	lwu	zero,0(sp)
     1ea:	1400                	addi	s0,sp,544
     1ec:	0704                	addi	s1,sp,896
     1ee:	de0c                	sw	a1,56(a2)
     1f0:	0001                	nop
     1f2:	0700                	addi	s0,sp,896
     1f4:	018a                	slli	gp,gp,0x2
     1f6:	0000                	unimp
     1f8:	d50c0d07          	.4byte	0xd50c0d07
     1fc:	0000                	unimp
     1fe:	0000                	unimp
     200:	0200                	addi	s0,sp,256
     202:	026c                	addi	a1,sp,268
     204:	0000                	unimp
     206:	c8030e07          	.4byte	0xc8030e07
     20a:	0001                	nop
     20c:	0b00                	addi	s0,sp,400
     20e:	0092                	slli	ra,ra,0x4
     210:	0000                	unimp
     212:	0e04                	addi	s1,sp,784
     214:	007f                	.2byte	0x7f
     216:	0000                	unimp
     218:	0309                	addi	t1,t1,2 # 92 <_start-0x7fffff6e>
     21a:	14a0                	addi	s0,sp,616
     21c:	8000                	.2byte	0x8000
     21e:	0000                	unimp
     220:	0000                	unimp
     222:	0001161b          	slliw	a2,sp,0x0
     226:	1000                	addi	s0,sp,32
     228:	0002                	c.slli64	zero
     22a:	1c00                	addi	s0,sp,560
     22c:	00aa                	slli	ra,ra,0xa
     22e:	0000                	unimp
     230:	01ff                	.2byte	0x1ff
     232:	1d00                	addi	s0,sp,688
     234:	00727473          	csrrci	s0,0x7,4
     238:	0501                	addi	a0,a0,0
     23a:	ff06                	sd	ra,440(sp)
     23c:	0001                	nop
     23e:	0900                	addi	s0,sp,144
     240:	0014c803          	lbu	a6,1(s1)
     244:	0080                	addi	s0,sp,64
     246:	0000                	unimp
     248:	1e00                	addi	s0,sp,816
     24a:	007d                	c.nop	31
     24c:	0000                	unimp
     24e:	0108                	addi	a0,sp,128
     250:	1084                	addi	s1,sp,96
     252:	024e                	slli	tp,tp,0x13
     254:	0000                	unimp
     256:	00006a07          	.4byte	0x6a07
     25a:	0100                	addi	s0,sp,128
     25c:	0c86                	slli	s9,s9,0x1
     25e:	00d5                	addi	ra,ra,21
     260:	0000                	unimp
     262:	0700                	addi	s0,sp,896
     264:	0308                	addi	a0,sp,384
     266:	0000                	unimp
     268:	8701                	c.srai64	a4
     26a:	d50c                	sw	a1,40(a0)
     26c:	0000                	unimp
     26e:	0400                	addi	s0,sp,512
     270:	1f00                	addi	s0,sp,944
     272:	013d                	addi	sp,sp,15
     274:	0000                	unimp
     276:	8801                	andi	s0,s0,0
     278:	00022603          	lw	a2,0(tp) # ffffffffffff9000 <__global_pointer$+0xffffffff7fff7398>
     27c:	0000                	unimp
     27e:	0b10                	addi	a2,sp,400
     280:	00000343          	fmadd.s	ft6,ft0,ft0,ft0,rne
     284:	0276118b          	.4byte	0x276118b
     288:	0000                	unimp
     28a:	0309                	addi	t1,t1,2
     28c:	1488                	addi	a0,sp,608
     28e:	8000                	.2byte	0x8000
     290:	0000                	unimp
     292:	0000                	unimp
     294:	d506                	sw	ra,168(sp)
     296:	0000                	unimp
     298:	0a00                	addi	s0,sp,272
     29a:	0271                	addi	tp,tp,28 # 1c <_start-0x7fffffe4>
     29c:	0000                	unimp
     29e:	0002ab0b          	.4byte	0x2ab0b
     2a2:	8c00                	.2byte	0x8c00
     2a4:	7611                	lui	a2,0xfffe4
     2a6:	0002                	c.slli64	zero
     2a8:	0900                	addi	s0,sp,144
     2aa:	00148003          	lb	zero,1(s1)
     2ae:	0080                	addi	s0,sp,64
     2b0:	0000                	unimp
     2b2:	0b00                	addi	s0,sp,400
     2b4:	035e                	slli	t1,t1,0x17
     2b6:	0000                	unimp
     2b8:	1f8d                	addi	t6,t6,-29
     2ba:	02aa                	slli	t0,t0,0xa
     2bc:	0000                	unimp
     2be:	0309                	addi	t1,t1,2
     2c0:	1478                	addi	a4,sp,556
     2c2:	8000                	.2byte	0x8000
     2c4:	0000                	unimp
     2c6:	0000                	unimp
     2c8:	4e06                	lw	t3,64(sp)
     2ca:	0002                	c.slli64	zero
     2cc:	0a00                	addi	s0,sp,272
     2ce:	02a5                	addi	t0,t0,9
     2d0:	0000                	unimp
     2d2:	f715                	bnez	a4,1fe <_start-0x7ffffe02>
     2d4:	0002                	c.slli64	zero
     2d6:	0a00                	addi	s0,sp,272
     2d8:	c01a                	sw	t1,0(sp)
     2da:	0002                	c.slli64	zero
     2dc:	0500                	addi	s0,sp,640
     2de:	000000eb          	.4byte	0xeb
     2e2:	0f00                	addi	s0,sp,912
     2e4:	00b6                	slli	ra,ra,0xd
     2e6:	0000                	unimp
     2e8:	54081a07          	.4byte	0x54081a07
     2ec:	0001                	nop
     2ee:	e500                	sd	s0,8(a0)
     2f0:	0002                	c.slli64	zero
     2f2:	0500                	addi	s0,sp,640
     2f4:	02e5                	addi	t0,t0,25
     2f6:	0000                	unimp
     2f8:	ea05                	bnez	a2,328 <_start-0x7ffffcd8>
     2fa:	0002                	c.slli64	zero
     2fc:	0500                	addi	s0,sp,640
     2fe:	00bd                	addi	ra,ra,15
     300:	0000                	unimp
     302:	d505                	beqz	a0,22a <_start-0x7ffffdd6>
     304:	0000                	unimp
     306:	0000                	unimp
     308:	bc06                	fsd	ft1,56(sp)
     30a:	0001                	nop
     30c:	0600                	addi	s0,sp,768
     30e:	00b1                	addi	ra,ra,12
     310:	0000                	unimp
     312:	0002ce0f          	.4byte	0x2ce0f
     316:	0800                	addi	s0,sp,16
     318:	0929                	addi	s2,s2,10
     31a:	000000f7          	.4byte	0xf7
     31e:	0305                	addi	t1,t1,1
     320:	0000                	unimp
     322:	2205                	addiw	tp,tp,1 # 1 <_start-0x7fffffff>
     324:	0001                	nop
     326:	0000                	unimp
     328:	0002640f          	.4byte	0x2640f
     32c:	0900                	addi	s0,sp,144
     32e:	05f4                	addi	a3,sp,716
     330:	0078                	addi	a4,sp,12
     332:	0000                	unimp
     334:	0321                	addi	t1,t1,8
     336:	0000                	unimp
     338:	1105                	addi	sp,sp,-31
     33a:	0001                	nop
     33c:	0500                	addi	s0,sp,640
     33e:	0122                	slli	sp,sp,0x8
     340:	0000                	unimp
     342:	0010                	.2byte	0x10
     344:	f716                	sd	t0,424(sp)
     346:	0000                	unimp
     348:	0b00                	addi	s0,sp,400
     34a:	2e11                	addiw	t3,t3,4 # 1a004 <_start-0x7ffe5ffc>
     34c:	10000003          	lb	zero,256(zero) # 100 <_start-0x7fffff00>
     350:	1500                	addi	s0,sp,672
     352:	005c                	addi	a5,sp,4
     354:	0000                	unimp
     356:	03441207          	.4byte	0x3441207
     35a:	0000                	unimp
     35c:	e505                	bnez	a0,384 <_start-0x7ffffc7c>
     35e:	0002                	c.slli64	zero
     360:	0500                	addi	s0,sp,640
     362:	0344                	addi	s1,sp,388
     364:	0000                	unimp
     366:	0600                	addi	s0,sp,768
     368:	01de                	slli	gp,gp,0x17
     36a:	0000                	unimp
     36c:	a716                	fsd	ft5,392(sp)
     36e:	0001                	nop
     370:	0a00                	addi	s0,sp,272
     372:	5616                	lw	a2,100(sp)
     374:	10000003          	lb	zero,256(zero) # 100 <_start-0x7fffff00>
     378:	2000                	fld	fs0,0(s0)
     37a:	00c8                	addi	a0,sp,68
     37c:	0000                	unimp
     37e:	a901                	j	78e <_start-0x7ffff872>
     380:	7805                	lui	a6,0xfffe1
     382:	0000                	unimp
     384:	da00                	sw	s0,48(a2)
     386:	00800003          	lb	zero,8(zero) # 8 <_start-0x7ffffff8>
     38a:	0000                	unimp
     38c:	2e00                	fld	fs0,24(a2)
     38e:	0001                	nop
     390:	0000                	unimp
     392:	0000                	unimp
     394:	0100                	addi	s0,sp,128
     396:	ac9c                	fsd	fa5,24(s1)
     398:	0005                	c.nop	1
     39a:	2100                	fld	fs0,0(a0)
     39c:	0154                	addi	a3,sp,132
     39e:	0000                	unimp
     3a0:	b001                	j	fffffffffffffba0 <__global_pointer$+0xffffffff7fffdf38>
     3a2:	de14                	sw	a3,56(a2)
     3a4:	0001                	nop
     3a6:	0300                	addi	s0,sp,384
     3a8:	9891                	andi	s1,s1,-28
     3aa:	227f                	.2byte	0x227f
     3ac:	756e                	ld	a0,248(sp)
     3ae:	006d                	c.nop	27
     3b0:	b601                	j	fffffffffffffeb0 <__global_pointer$+0xffffffff7fffe248>
     3b2:	0000c90b          	.4byte	0xc90b
     3b6:	0c00                	addi	s0,sp,528
     3b8:	0000                	unimp
     3ba:	0800                	addi	s0,sp,16
     3bc:	00f1                	addi	ra,ra,28
     3be:	0000                	unimp
     3c0:	00c90bb7          	lui	s7,0xc90
     3c4:	0000                	unimp
     3c6:	0034                	addi	a3,sp,8
     3c8:	0000                	unimp
     3ca:	7d08                	ld	a0,56(a0)
     3cc:	0002                	c.slli64	zero
     3ce:	b900                	fsd	fs0,48(a0)
     3d0:	2a09                	addiw	s4,s4,2
     3d2:	0000                	unimp
     3d4:	5c00                	lw	s0,56(s0)
     3d6:	0000                	unimp
     3d8:	0800                	addi	s0,sp,16
     3da:	00f0                	addi	a2,sp,76
     3dc:	0000                	unimp
     3de:	09ba                	slli	s3,s3,0xe
     3e0:	002a                	c.slli	zero,0xa
     3e2:	0000                	unimp
     3e4:	0089                	addi	ra,ra,2
     3e6:	0000                	unimp
     3e8:	00025c23          	.4byte	0x25c23
     3ec:	0100                	addi	s0,sp,128
     3ee:	0bc6                	slli	s7,s7,0x11
     3f0:	00b1                	addi	ra,ra,12
     3f2:	0000                	unimp
     3f4:	1100                	addi	s0,sp,160
     3f6:	03f6                	slli	t2,t2,0x1d
     3f8:	8000                	.2byte	0x8000
     3fa:	0000                	unimp
     3fc:	0000                	unimp
     3fe:	0349                	addi	t1,t1,18
     400:	0000                	unimp
     402:	0804                	addi	s1,sp,16
     404:	0004                	.2byte	0x4
     406:	0080                	addi	s0,sp,64
     408:	0000                	unimp
     40a:	2e00                	fld	fs0,24(a2)
     40c:	01000003          	lb	zero,16(zero) # 10 <_start-0x7ffffff0>
     410:	0004                	.2byte	0x4
     412:	0100                	addi	s0,sp,128
     414:	5a01                	li	s4,-32
     416:	0c05                	addi	s8,s8,1 # 1a001 <_start-0x7ffe5fff>
     418:	a000                	fsd	fs0,0(s0)
     41a:	1001                	c.nop	-32
     41c:	0101                	addi	sp,sp,0
     41e:	9891035b          	.4byte	0x9891035b
     422:	007f                	.2byte	0x7f
     424:	0c11                	addi	s8,s8,4
     426:	0004                	.2byte	0x4
     428:	0080                	addi	s0,sp,64
     42a:	0000                	unimp
     42c:	2100                	fld	fs0,0(a0)
     42e:	11000003          	lb	zero,272(zero) # 110 <_start-0x7ffffef0>
     432:	0410                	addi	a2,sp,512
     434:	8000                	.2byte	0x8000
     436:	0000                	unimp
     438:	0000                	unimp
     43a:	0321                	addi	t1,t1,8
     43c:	0000                	unimp
     43e:	2004                	fld	fs1,0(s0)
     440:	0004                	.2byte	0x4
     442:	0080                	addi	s0,sp,64
     444:	0000                	unimp
     446:	fe00                	sd	s0,56(a2)
     448:	0006                	c.slli	zero,0x1
     44a:	4700                	lw	s0,8(a4)
     44c:	0004                	.2byte	0x4
     44e:	0100                	addi	s0,sp,128
     450:	5a01                	li	s4,-32
     452:	0309                	addi	t1,t1,2
     454:	14c8                	addi	a0,sp,612
     456:	8000                	.2byte	0x8000
     458:	0000                	unimp
     45a:	0000                	unimp
     45c:	0101                	addi	sp,sp,0
     45e:	6003095b          	.4byte	0x6003095b
     462:	0012                	c.slli	zero,0x4
     464:	0080                	addi	s0,sp,64
     466:	0000                	unimp
     468:	0000                	unimp
     46a:	2804                	fld	fs1,16(s0)
     46c:	0004                	.2byte	0x4
     46e:	0080                	addi	s0,sp,64
     470:	0000                	unimp
     472:	ef00                	sd	s0,24(a4)
     474:	0002                	c.slli64	zero
     476:	6600                	ld	s0,8(a2)
     478:	0004                	.2byte	0x4
     47a:	0100                	addi	s0,sp,128
     47c:	5a01                	li	s4,-32
     47e:	0309                	addi	t1,t1,2
     480:	14c8                	addi	a0,sp,612
     482:	8000                	.2byte	0x8000
     484:	0000                	unimp
     486:	0000                	unimp
     488:	0400                	addi	s0,sp,512
     48a:	043c                	addi	a5,sp,520
     48c:	8000                	.2byte	0x8000
     48e:	0000                	unimp
     490:	0000                	unimp
     492:	02c0                	addi	s0,sp,324
     494:	0000                	unimp
     496:	00000493          	li	s1,0
     49a:	0101                	addi	sp,sp,0
     49c:	055a                	slli	a0,a0,0x16
     49e:	000c                	.2byte	0xc
     4a0:	01a0                	addi	s0,sp,200
     4a2:	0110                	addi	a2,sp,128
     4a4:	5b01                	li	s6,-32
     4a6:	0309                	addi	t1,t1,2
     4a8:	14c8                	addi	a0,sp,612
     4aa:	8000                	.2byte	0x8000
     4ac:	0000                	unimp
     4ae:	0000                	unimp
     4b0:	0101                	addi	sp,sp,0
     4b2:	015d                	addi	sp,sp,23
     4b4:	0030                	addi	a2,sp,8
     4b6:	9a04                	.2byte	0x9a04
     4b8:	0004                	.2byte	0x4
     4ba:	0080                	addi	s0,sp,64
     4bc:	0000                	unimp
     4be:	0500                	addi	s0,sp,640
     4c0:	c6000003          	lb	zero,-928(zero) # fffffffffffffc60 <__global_pointer$+0xffffffff7fffdff8>
     4c4:	0004                	.2byte	0x4
     4c6:	0100                	addi	s0,sp,128
     4c8:	5a01                	li	s4,-32
     4ca:	7802                	ld	a6,32(sp)
     4cc:	0100                	addi	s0,sp,128
     4ce:	5b01                	li	s6,-32
     4d0:	8402                	jr	s0
     4d2:	0100                	addi	s0,sp,128
     4d4:	5c01                	li	s8,-32
     4d6:	7902                	ld	s2,32(sp)
     4d8:	0100                	addi	s0,sp,128
     4da:	5d01                	li	s10,-32
     4dc:	8202                	jr	tp
     4de:	0100                	addi	s0,sp,128
     4e0:	5e01                	li	t3,-32
     4e2:	7905                	lui	s2,0xfffe1
     4e4:	8200                	.2byte	0x8200
     4e6:	1b00                	addi	s0,sp,432
     4e8:	0400                	addi	s0,sp,512
     4ea:	04a0                	addi	s0,sp,584
     4ec:	8000                	.2byte	0x8000
     4ee:	0000                	unimp
     4f0:	0000                	unimp
     4f2:	000002ef          	jal	t0,4f2 <_start-0x7ffffb0e>
     4f6:	04de                	slli	s1,s1,0x17
     4f8:	0000                	unimp
     4fa:	0101                	addi	sp,sp,0
     4fc:	025a                	slli	tp,tp,0x16
     4fe:	0078                	addi	a4,sp,12
     500:	0400                	addi	s0,sp,512
     502:	04b2                	slli	s1,s1,0xc
     504:	8000                	.2byte	0x8000
     506:	0000                	unimp
     508:	0000                	unimp
     50a:	02c0                	addi	s0,sp,324
     50c:	0000                	unimp
     50e:	0504                	addi	s1,sp,640
     510:	0000                	unimp
     512:	0101                	addi	sp,sp,0
     514:	055a                	slli	a0,a0,0x16
     516:	000c                	.2byte	0xc
     518:	01a0                	addi	s0,sp,200
     51a:	0110                	addi	a2,sp,128
     51c:	5b01                	li	s6,-32
     51e:	7802                	ld	a6,32(sp)
     520:	0100                	addi	s0,sp,128
     522:	5d01                	li	s10,-32
     524:	3001                	.2byte	0x3001
     526:	0400                	addi	s0,sp,512
     528:	04ba                	slli	s1,s1,0xe
     52a:	8000                	.2byte	0x8000
     52c:	0000                	unimp
     52e:	0000                	unimp
     530:	000002af          	.4byte	0x2af
     534:	051c                	addi	a5,sp,640
     536:	0000                	unimp
     538:	0101                	addi	sp,sp,0
     53a:	025a                	slli	tp,tp,0x16
     53c:	6408                	ld	a0,8(s0)
     53e:	0400                	addi	s0,sp,512
     540:	04e6                	slli	s1,s1,0x19
     542:	8000                	.2byte	0x8000
     544:	0000                	unimp
     546:	0000                	unimp
     548:	0305                	addi	t1,t1,1
     54a:	0000                	unimp
     54c:	0559                	addi	a0,a0,22
     54e:	0000                	unimp
     550:	0101                	addi	sp,sp,0
     552:	025a                	slli	tp,tp,0x16
     554:	0078                	addi	a4,sp,12
     556:	0101                	addi	sp,sp,0
     558:	0083025b          	.4byte	0x83025b
     55c:	0101                	addi	sp,sp,0
     55e:	055c                	addi	a5,sp,644
     560:	29a5                	addiw	s3,s3,9
     562:	a82a                	fsd	fa0,16(sp)
     564:	0131                	addi	sp,sp,12
     566:	5d01                	li	s10,-32
     568:	a505                	j	b88 <_start-0x7ffff478>
     56a:	2a28                	fld	fa0,80(a2)
     56c:	31a8                	fld	fa0,96(a1)
     56e:	0101                	addi	sp,sp,0
     570:	095e                	slli	s2,s2,0x17
     572:	29a5                	addiw	s3,s3,9
     574:	a52a                	fsd	fa0,136(sp)
     576:	2a28                	fld	fa0,80(a2)
     578:	0031a81b          	.4byte	0x31a81b
     57c:	ee04                	sd	s1,24(a2)
     57e:	0004                	.2byte	0x4
     580:	0080                	addi	s0,sp,64
     582:	0000                	unimp
     584:	af00                	fsd	fs0,24(a4)
     586:	0002                	c.slli64	zero
     588:	7100                	ld	s0,32(a0)
     58a:	0005                	c.nop	1
     58c:	0100                	addi	s0,sp,128
     58e:	5a01                	li	s4,-32
     590:	0802                	c.slli64	a6
     592:	0064                	addi	s1,sp,12
     594:	f404                	sd	s1,40(s0)
     596:	0004                	.2byte	0x4
     598:	0080                	addi	s0,sp,64
     59a:	0000                	unimp
     59c:	ef00                	sd	s0,24(a4)
     59e:	0002                	c.slli64	zero
     5a0:	8900                	.2byte	0x8900
     5a2:	0005                	c.nop	1
     5a4:	0100                	addi	s0,sp,128
     5a6:	5a01                	li	s4,-32
     5a8:	7802                	ld	a6,32(sp)
     5aa:	0000                	unimp
     5ac:	0624                	addi	s1,sp,776
     5ae:	0005                	c.nop	1
     5b0:	0080                	addi	s0,sp,64
     5b2:	0000                	unimp
     5b4:	c000                	sw	s0,0(s0)
     5b6:	0002                	c.slli64	zero
     5b8:	0100                	addi	s0,sp,128
     5ba:	5a01                	li	s4,-32
     5bc:	0c05                	addi	s8,s8,1
     5be:	a000                	fsd	fs0,0(s0)
     5c0:	1001                	c.nop	-32
     5c2:	0101                	addi	sp,sp,0
     5c4:	0078025b          	.4byte	0x78025b
     5c8:	0101                	addi	sp,sp,0
     5ca:	015d                	addi	sp,sp,23
     5cc:	0030                	addi	a2,sp,8
     5ce:	0c00                	addi	s0,sp,528
     5d0:	011e                	slli	sp,sp,0x7
     5d2:	0000                	unimp
     5d4:	0000d4a3          	.4byte	0xd4a3
     5d8:	0080                	addi	s0,sp,64
     5da:	0000                	unimp
     5dc:	1200                	addi	s0,sp,288
     5de:	0000                	unimp
     5e0:	0000                	unimp
     5e2:	0000                	unimp
     5e4:	0100                	addi	s0,sp,128
     5e6:	e59c                	sd	a5,8(a1)
     5e8:	0005                	c.nop	1
     5ea:	0900                	addi	s0,sp,144
     5ec:	0102                	c.slli64	sp
     5ee:	0000                	unimp
     5f0:	00d521a3          	sw	a3,3(a0)
     5f4:	0000                	unimp
     5f6:	00b6                	slli	ra,ra,0xd
     5f8:	0000                	unimp
     5fa:	0112                	slli	sp,sp,0x4
     5fc:	a3000003          	lb	zero,-1488(zero) # fffffffffffffa30 <__global_pointer$+0xffffffff7fffddc8>
     600:	0000d533          	srl	a0,ra,zero
     604:	0100                	addi	s0,sp,128
     606:	9325005b          	.4byte	0x9325005b
     60a:	0001                	nop
     60c:	0100                	addi	s0,sp,128
     60e:	0a9f 00d5 0000      	.byte	0x9f, 0x0a, 0xd5, 0x00, 0x00, 0x00
     614:	00c2                	slli	ra,ra,0x10
     616:	8000                	.2byte	0x8000
     618:	0000                	unimp
     61a:	0000                	unimp
     61c:	0012                	c.slli	zero,0x4
     61e:	0000                	unimp
     620:	0000                	unimp
     622:	0000                	unimp
     624:	9c01                	subw	s0,s0,s0
     626:	00000617          	auipc	a2,0x0
     62a:	0209                	addi	tp,tp,2 # 2 <_start-0x7ffffffe>
     62c:	0001                	nop
     62e:	9f00                	.2byte	0x9f00
     630:	d522                	sw	s0,168(sp)
     632:	0000                	unimp
     634:	e000                	sd	s0,0(s0)
     636:	0000                	unimp
     638:	0000                	unimp
     63a:	990c                	.2byte	0x990c
     63c:	0002                	c.slli64	zero
     63e:	9b00                	.2byte	0x9b00
     640:	00b0                	addi	a2,sp,72
     642:	8000                	.2byte	0x8000
     644:	0000                	unimp
     646:	0000                	unimp
     648:	0012                	c.slli	zero,0x4
     64a:	0000                	unimp
     64c:	0000                	unimp
     64e:	0000                	unimp
     650:	9c01                	subw	s0,s0,s0
     652:	0650                	addi	a2,sp,772
     654:	0000                	unimp
     656:	0109                	addi	sp,sp,2
     658:	9b000003          	lb	zero,-1616(zero) # fffffffffffff9b0 <__global_pointer$+0xffffffff7fffdd48>
     65c:	d521                	beqz	a0,5a4 <_start-0x7ffffa5c>
     65e:	0000                	unimp
     660:	0a00                	addi	s0,sp,272
     662:	0001                	nop
     664:	1200                	addi	s0,sp,288
     666:	02a2                	slli	t0,t0,0x8
     668:	0000                	unimp
     66a:	00d5329b          	.4byte	0xd5329b
     66e:	0000                	unimp
     670:	5b01                	li	s6,-32
     672:	0c00                	addi	s0,sp,528
     674:	0000016f          	jal	sp,674 <_start-0x7ffff98c>
     678:	a096                	fsd	ft5,64(sp)
     67a:	0000                	unimp
     67c:	0080                	addi	s0,sp,64
     67e:	0000                	unimp
     680:	1000                	addi	s0,sp,32
     682:	0000                	unimp
     684:	0000                	unimp
     686:	0000                	unimp
     688:	0100                	addi	s0,sp,128
     68a:	a79c                	fsd	fa5,8(a5)
     68c:	0006                	c.slli	zero,0x1
     68e:	0900                	addi	s0,sp,144
     690:	0102                	c.slli64	sp
     692:	0000                	unimp
     694:	2496                	fld	fs1,320(sp)
     696:	00d5                	addi	ra,ra,21
     698:	0000                	unimp
     69a:	0134                	addi	a3,sp,136
     69c:	0000                	unimp
     69e:	0109                	addi	sp,sp,2
     6a0:	96000003          	lb	zero,-1696(zero) # fffffffffffff960 <__global_pointer$+0xffffffff7fffdcf8>
     6a4:	d536                	sw	a3,168(sp)
     6a6:	0000                	unimp
     6a8:	5e00                	lw	s0,56(a2)
     6aa:	0001                	nop
     6ac:	0800                	addi	s0,sp,16
     6ae:	0138                	addi	a4,sp,136
     6b0:	0000                	unimp
     6b2:	02710d97          	auipc	s11,0x2710
     6b6:	0000                	unimp
     6b8:	0188                	addi	a0,sp,192
     6ba:	0000                	unimp
     6bc:	b026                	fsd	fs1,32(sp)
     6be:	0000                	unimp
     6c0:	0080                	addi	s0,sp,64
     6c2:	0000                	unimp
     6c4:	a700                	fsd	fs0,8(a4)
     6c6:	0006                	c.slli	zero,0x1
     6c8:	0000                	unimp
     6ca:	e30c                	sd	a1,0(a4)
     6cc:	0000                	unimp
     6ce:	8f00                	.2byte	0x8f00
     6d0:	0092                	slli	ra,ra,0x4
     6d2:	8000                	.2byte	0x8000
     6d4:	0000                	unimp
     6d6:	0000                	unimp
     6d8:	000e                	c.slli	zero,0x3
     6da:	0000                	unimp
     6dc:	0000                	unimp
     6de:	0000                	unimp
     6e0:	9c01                	subw	s0,s0,s0
     6e2:	06fe                	slli	a3,a3,0x1f
     6e4:	0000                	unimp
     6e6:	9e12                	add	t3,t3,tp
     6e8:	0000                	unimp
     6ea:	8f00                	.2byte	0x8f00
     6ec:	00027623          	.4byte	0x27623
     6f0:	0100                	addi	s0,sp,128
     6f2:	095a                	slli	s2,s2,0x16
     6f4:	033d                	addi	t1,t1,15
     6f6:	0000                	unimp
     6f8:	00d5348f          	.4byte	0xd5348f
     6fc:	0000                	unimp
     6fe:	01d2                	slli	gp,gp,0x14
     700:	0000                	unimp
     702:	3908                	fld	fa0,48(a0)
     704:	91000003          	lb	zero,-1776(zero) # fffffffffffff910 <__global_pointer$+0xffffffff7fffdca8>
     708:	d50c                	sw	a1,40(a0)
     70a:	0000                	unimp
     70c:	fc00                	sd	s0,56(s0)
     70e:	0001                	nop
     710:	0800                	addi	s0,sp,16
     712:	02d5                	addi	t0,t0,21
     714:	0000                	unimp
     716:	0c92                	slli	s9,s9,0x4
     718:	00d5                	addi	ra,ra,21
     71a:	0000                	unimp
     71c:	022c                	addi	a1,sp,264
     71e:	0000                	unimp
     720:	2700                	fld	fs0,8(a4)
     722:	0000032b          	.4byte	0x32b
     726:	0321                	addi	t1,t1,8
     728:	0000                	unimp
     72a:	000c                	.2byte	0xc
     72c:	d300                	sw	s0,32(a4)
     72e:	0005                	c.nop	1
     730:	0500                	addi	s0,sp,640
     732:	0100                	addi	s0,sp,128
     734:	6608                	ld	a0,8(a2)
     736:	0002                	c.slli64	zero
     738:	1900                	addi	s0,sp,176
     73a:	01ca                	slli	gp,gp,0x12
     73c:	0000                	unimp
     73e:	741d                	lui	s0,0xfffe7
     740:	0002                	c.slli64	zero
     742:	0000                	unimp
     744:	0000                	unimp
     746:	e600                	sd	s0,8(a2)
     748:	0000                	unimp
     74a:	0080                	addi	s0,sp,64
     74c:	0000                	unimp
     74e:	2200                	fld	fs0,0(a2)
     750:	0001                	nop
     752:	0000                	unimp
     754:	0000                	unimp
     756:	5100                	lw	s0,32(a0)
     758:	0006                	c.slli	zero,0x1
     75a:	0300                	addi	s0,sp,384
     75c:	0601                	addi	a2,a2,0 # 626 <_start-0x7ffff9da>
     75e:	01be                	slli	gp,gp,0xf
     760:	0000                	unimp
     762:	6502                	ld	a0,0(sp)
     764:	0001                	nop
     766:	0200                	addi	s0,sp,256
     768:	0041182b          	.4byte	0x41182b
     76c:	0000                	unimp
     76e:	bc080103          	lb	sp,-1088(a6) # fffffffffffe0bc0 <__global_pointer$+0xffffffff7ffdef58>
     772:	0001                	nop
     774:	0300                	addi	s0,sp,384
     776:	0502                	c.slli64	a0
     778:	00a5                	addi	ra,ra,9
     77a:	0000                	unimp
     77c:	d802                	sw	zero,48(sp)
     77e:	0000                	unimp
     780:	0200                	addi	s0,sp,256
     782:	1939                	addi	s2,s2,-18 # fffffffffffe0fee <__global_pointer$+0xffffffff7ffdf386>
     784:	0000005b          	.4byte	0x5b
     788:	bb070203          	lb	tp,-1104(a4)
     78c:	0002                	c.slli64	zero
     78e:	1a00                	addi	s0,sp,304
     790:	0504                	addi	s1,sp,640
     792:	6e69                	lui	t3,0x1a
     794:	0074                	addi	a3,sp,12
     796:	cd02                	sw	zero,152(sp)
     798:	0000                	unimp
     79a:	0200                	addi	s0,sp,256
     79c:	0075194f          	fnmadd.s	fs2,fa0,ft7,ft0,rtz
     7a0:	0000                	unimp
     7a2:	8c070403          	lb	s0,-1856(a4)
     7a6:	0002                	c.slli64	zero
     7a8:	0300                	addi	s0,sp,384
     7aa:	0508                	addi	a0,sp,640
     7ac:	0115                	addi	sp,sp,5
     7ae:	0000                	unimp
     7b0:	df02                	sw	zero,188(sp)
     7b2:	0002                	c.slli64	zero
     7b4:	0200                	addi	s0,sp,256
     7b6:	1969                	addi	s2,s2,-6
     7b8:	0000008f          	.4byte	0x8f
     7bc:	87070803          	lb	a6,-1936(a4)
     7c0:	0002                	c.slli64	zero
     7c2:	0200                	addi	s0,sp,256
     7c4:	00000167          	jalr	sp,zero # 0 <_start-0x80000000>
     7c8:	35131803          	lh	a6,849(t1)
     7cc:	0000                	unimp
     7ce:	0200                	addi	s0,sp,256
     7d0:	00da                	slli	ra,ra,0x16
     7d2:	0000                	unimp
     7d4:	4f142403          	lw	s0,1265(s0) # fffffffffffe74f1 <__global_pointer$+0xffffffff7ffe5889>
     7d8:	0000                	unimp
     7da:	0200                	addi	s0,sp,256
     7dc:	000000cf          	fnmadd.s	ft1,ft0,ft0,ft0,rne
     7e0:	69143003          	ld	zero,1681(s0)
     7e4:	0000                	unimp
     7e6:	1200                	addi	s0,sp,288
     7e8:	00ae                	slli	ra,ra,0xb
     7ea:	0000                	unimp
     7ec:	0000ba13          	sltiu	s4,ra,0
     7f0:	0200                	addi	s0,sp,256
     7f2:	02e1                	addi	t0,t0,24
     7f4:	0000                	unimp
     7f6:	83143c03          	ld	s8,-1999(s0)
     7fa:	0000                	unimp
     7fc:	1200                	addi	s0,sp,288
     7fe:	00c4                	addi	s1,sp,68
     800:	0000                	unimp
     802:	af02                	fsd	ft0,408(sp)
     804:	0000                	unimp
     806:	0400                	addi	s0,sp,512
     808:	17d6                	slli	a5,a5,0x35
     80a:	0000008f          	.4byte	0x8f
     80e:	10050803          	lb	a6,256(a0)
     812:	0001                	nop
     814:	0300                	addi	s0,sp,384
     816:	0410                	addi	a2,sp,512
     818:	01b0                	addi	a2,sp,200
     81a:	0000                	unimp
     81c:	f40a                	sd	sp,40(sp)
     81e:	0000                	unimp
     820:	0300                	addi	s0,sp,384
     822:	0801                	addi	a6,a6,0
     824:	01c5                	addi	gp,gp,17 # 80001c79 <__global_pointer$+0x11>
     826:	0000                	unimp
     828:	0000f413          	andi	s0,ra,0
     82c:	0a00                	addi	s0,sp,272
     82e:	000000fb          	.4byte	0xfb
     832:	82070803          	lb	a6,-2016(a4)
     836:	0002                	c.slli64	zero
     838:	1b00                	addi	s0,sp,432
     83a:	00750407          	.4byte	0x750407
     83e:	0000                	unimp
     840:	1805                	addi	a6,a6,-31
     842:	320e                	fld	ft4,224(sp)
     844:	0001                	nop
     846:	1c00                	addi	s0,sp,560
     848:	00004b4f          	fnmadd.s	fs6,ft0,ft0,ft0,rmm
     84c:	840d                	srai	s0,s0,0x3
     84e:	0001                	nop
     850:	0100                	addi	s0,sp,128
     852:	a20d                	j	974 <_start-0x7ffff68c>
     854:	0001                	nop
     856:	0200                	addi	s0,sp,256
     858:	300d                	.2byte	0x300d
     85a:	0001                	nop
     85c:	0300                	addi	s0,sp,384
     85e:	0200                	addi	s0,sp,256
     860:	0332                	slli	t1,t1,0xc
     862:	0000                	unimp
     864:	1d05                	addi	s10,s10,-31
     866:	00010c03          	lb	s8,0(sp)
     86a:	1d00                	addi	s0,sp,688
     86c:	c000                	sw	s0,0(s0)
     86e:	2506                	fld	fa0,64(sp)
     870:	8809                	andi	s0,s0,2
     872:	0001                	nop
     874:	0700                	addi	s0,sp,896
     876:	0500                	addi	s0,sp,640
     878:	0000                	unimp
     87a:	1126                	slli	sp,sp,0x29
     87c:	00ba                	slli	ra,ra,0xe
     87e:	0000                	unimp
     880:	0700                	addi	s0,sp,896
     882:	04c1                	addi	s1,s1,16
     884:	0000                	unimp
     886:	01880c27          	.4byte	0x1880c27
     88a:	0000                	unimp
     88c:	0e04                	addi	s1,sp,784
     88e:	03e0                	addi	s0,sp,460
     890:	0000                	unimp
     892:	1128                	addi	a0,sp,168
     894:	00d0                	addi	a2,sp,68
     896:	0000                	unimp
     898:	4000                	lw	s0,0(s0)
     89a:	cb0e                	sw	gp,148(sp)
     89c:	0004                	.2byte	0x4
     89e:	2900                	fld	fs0,16(a0)
     8a0:	990c                	.2byte	0x990c
     8a2:	0001                	nop
     8a4:	0800                	addi	s0,sp,16
     8a6:	0e40                	addi	s0,sp,788
     8a8:	03da                	slli	t2,t2,0x16
     8aa:	0000                	unimp
     8ac:	112a                	slli	sp,sp,0x2a
     8ae:	00d0                	addi	a2,sp,68
     8b0:	0000                	unimp
     8b2:	bff8                	fsd	fa4,248(a5)
     8b4:	0b00                	addi	s0,sp,400
     8b6:	00ae                	slli	ra,ra,0xb
     8b8:	0000                	unimp
     8ba:	0199                	addi	gp,gp,6 # 80001c6e <__global_pointer$+0x6>
     8bc:	0000                	unimp
     8be:	8f14                	.2byte	0x8f14
     8c0:	0000                	unimp
     8c2:	fe00                	sd	s0,56(a2)
     8c4:	ae0b000f          	.4byte	0xae0b000f
     8c8:	0000                	unimp
     8ca:	aa00                	fsd	fs0,16(a2)
     8cc:	0001                	nop
     8ce:	1400                	addi	s0,sp,544
     8d0:	0000008f          	.4byte	0x8f
     8d4:	02001ffb          	.4byte	0x2001ffb
     8d8:	04f2                	slli	s1,s1,0x1c
     8da:	0000                	unimp
     8dc:	2b06                	fld	fs6,64(sp)
     8de:	00013e03          	ld	t3,0(sp)
     8e2:	1e00                	addi	s0,sp,816
     8e4:	061c                	addi	a5,sp,768
     8e6:	0946                	slli	s2,s2,0x11
     8e8:	0000020f          	.4byte	0x20f
     8ec:	00035007          	.4byte	0x35007
     8f0:	4700                	lw	s0,8(a4)
     8f2:	ba11                	j	206 <_start-0x7ffffdfa>
     8f4:	0000                	unimp
     8f6:	0000                	unimp
     8f8:	00035707          	.4byte	0x35707
     8fc:	4800                	lw	s0,16(s0)
     8fe:	bf11                	j	812 <_start-0x7ffff7ee>
     900:	0000                	unimp
     902:	0400                	addi	s0,sp,512
     904:	00037007          	.4byte	0x37007
     908:	4900                	lw	s0,16(a0)
     90a:	ba11                	j	21e <_start-0x7ffffde2>
     90c:	0000                	unimp
     90e:	0800                	addi	s0,sp,16
     910:	00037707          	.4byte	0x37707
     914:	4a00                	lw	s0,16(a2)
     916:	ba11                	j	22a <_start-0x7ffffdd6>
     918:	0000                	unimp
     91a:	0c00                	addi	s0,sp,528
     91c:	0045490f          	.4byte	0x45490f
     920:	0000ba4b          	fnmsub.s	fs4,ft1,ft0,ft0,rup
     924:	1000                	addi	s0,sp,32
     926:	0050490f          	.4byte	0x50490f
     92a:	bf4c                	fsd	fa1,184(a4)
     92c:	0000                	unimp
     92e:	1400                	addi	s0,sp,544
     930:	5649440f          	.4byte	0x5649440f
     934:	4d00                	lw	s0,24(a0)
     936:	00ba                	slli	ra,ra,0xe
     938:	0000                	unimp
     93a:	0018                	.2byte	0x18
     93c:	ea02                	sd	zero,272(sp)
     93e:	0002                	c.slli64	zero
     940:	0600                	addi	s0,sp,768
     942:	034e                	slli	t1,t1,0x13
     944:	01b6                	slli	gp,gp,0xd
     946:	0000                	unimp
     948:	1e0c                	addi	a1,sp,816
     94a:	0001                	nop
     94c:	8d00                	.2byte	0x8d00
     94e:	6205                	lui	tp,0x1
     950:	0000                	unimp
     952:	2c00                	fld	fs0,24(s0)
     954:	0002                	c.slli64	zero
     956:	0800                	addi	s0,sp,16
     958:	0c00                	addi	s0,sp,528
     95a:	00000193          	li	gp,0
     95e:	1a74                	addi	a3,sp,316
     960:	0062                	c.slli	zero,0x18
     962:	0000                	unimp
     964:	023d                	addi	tp,tp,15 # 100f <_start-0x7fffeff1>
     966:	0000                	unimp
     968:	0008                	.2byte	0x8
     96a:	b610                	fsd	fa2,40(a2)
     96c:	0000                	unimp
     96e:	0700                	addi	s0,sp,896
     970:	081a                	slli	a6,a6,0x6
     972:	0132                	slli	sp,sp,0xc
     974:	0000                	unimp
     976:	0262                	slli	tp,tp,0x18
     978:	0000                	unimp
     97a:	6206                	ld	tp,64(sp)
     97c:	0002                	c.slli64	zero
     97e:	0600                	addi	s0,sp,768
     980:	00000267          	jalr	tp,zero # 0 <_start-0x80000000>
     984:	a206                	fsd	ft1,256(sp)
     986:	0000                	unimp
     988:	0600                	addi	s0,sp,768
     98a:	00ae                	slli	ra,ra,0xb
     98c:	0000                	unimp
     98e:	0a00                	addi	s0,sp,272
     990:	0000020f          	.4byte	0x20f
     994:	960a                	add	a2,a2,sp
     996:	0000                	unimp
     998:	1000                	addi	s0,sp,32
     99a:	02ce                	slli	t0,t0,0x13
     99c:	0000                	unimp
     99e:	2908                	fld	fa0,16(a0)
     9a0:	d509                	beqz	a0,8aa <_start-0x7ffff756>
     9a2:	0000                	unimp
     9a4:	8200                	.2byte	0x8200
     9a6:	0002                	c.slli64	zero
     9a8:	0600                	addi	s0,sp,768
     9aa:	0100                	addi	s0,sp,128
     9ac:	0000                	unimp
     9ae:	1000                	addi	s0,sp,32
     9b0:	0264                	addi	s1,sp,268
     9b2:	0000                	unimp
     9b4:	f409                	bnez	s0,8be <_start-0x7ffff742>
     9b6:	6205                	lui	tp,0x1
     9b8:	0000                	unimp
     9ba:	9e00                	.2byte	0x9e00
     9bc:	0002                	c.slli64	zero
     9be:	0600                	addi	s0,sp,768
     9c0:	000000ef          	jal	ra,9c0 <_start-0x7ffff640>
     9c4:	0006                	c.slli	zero,0x1
     9c6:	0001                	nop
     9c8:	0800                	addi	s0,sp,16
     9ca:	1100                	addi	s0,sp,160
     9cc:	0000039b          	sext.w	t2,zero
     9d0:	0660                	addi	s0,sp,780
     9d2:	01be                	slli	gp,gp,0xf
     9d4:	8000                	.2byte	0x8000
     9d6:	0000                	unimp
     9d8:	0000                	unimp
     9da:	004a                	c.slli	zero,0x12
     9dc:	0000                	unimp
     9de:	0000                	unimp
     9e0:	0000                	unimp
     9e2:	9c01                	subw	s0,s0,s0
     9e4:	00000347          	fmsub.s	ft6,ft0,ft0,ft0,rne
     9e8:	3f09                	addiw	t5,t5,-30
     9ea:	0005                	c.nop	1
     9ec:	6100                	ld	s0,0(a0)
     9ee:	ae0c                	fsd	fa1,24(a2)
     9f0:	0000                	unimp
     9f2:	6800                	ld	s0,16(s0)
     9f4:	0002                	c.slli64	zero
     9f6:	0900                	addi	s0,sp,144
     9f8:	03a8                	addi	a0,sp,456
     9fa:	0000                	unimp
     9fc:	0b64                	addi	s1,sp,412
     9fe:	0096                	slli	ra,ra,0x5
     a00:	0000                	unimp
     a02:	02b5                	addi	t0,t0,13
     a04:	0000                	unimp
     a06:	5e1f 0000 0900      	.byte	0x1f, 0x5e, 0x00, 0x00, 0x00, 0x09
     a0c:	047d                	addi	s0,s0,31
     a0e:	0000                	unimp
     a10:	0e74                	addi	a3,sp,796
     a12:	00ae                	slli	ra,ra,0xb
     a14:	0000                	unimp
     a16:	0312                	slli	t1,t1,0x4
     a18:	0000                	unimp
     a1a:	930c                	.2byte	0x930c
     a1c:	0001                	nop
     a1e:	7400                	ld	s0,40(s0)
     a20:	621a                	ld	tp,384(sp)
     a22:	0000                	unimp
     a24:	fe00                	sd	s0,56(a2)
     a26:	0002                	c.slli64	zero
     a28:	0800                	addi	s0,sp,16
     a2a:	2000                	fld	fs0,0(s0)
     a2c:	00727473          	csrrci	s0,0x7,4
     a30:	7601                	lui	a2,0xfffe0
     a32:	470a                	lw	a4,128(sp)
     a34:	0c000003          	lb	zero,192(zero) # c0 <_start-0x7fffff40>
     a38:	011e                	slli	sp,sp,0x7
     a3a:	0000                	unimp
     a3c:	058d                	addi	a1,a1,3
     a3e:	0062                	c.slli	zero,0x18
     a40:	0000                	unimp
     a42:	0000031b          	sext.w	t1,zero
     a46:	0008                	.2byte	0x8
     a48:	ea05                	bnez	a2,a78 <_start-0x7ffff588>
     a4a:	0001                	nop
     a4c:	0080                	addi	s0,sp,64
     a4e:	0000                	unimp
     a50:	2c00                	fld	fs0,24(s0)
     a52:	0002                	c.slli64	zero
     a54:	3200                	fld	fs0,32(a2)
     a56:	01000003          	lb	zero,16(zero) # 10 <_start-0x7ffffff0>
     a5a:	5a01                	li	s4,-32
     a5c:	3001                	.2byte	0x3001
     a5e:	2100                	fld	fs0,0(a0)
     a60:	01f6                	slli	gp,gp,0x1d
     a62:	8000                	.2byte	0x8000
     a64:	0000                	unimp
     a66:	0000                	unimp
     a68:	0000021b          	sext.w	tp,zero
     a6c:	0101                	addi	sp,sp,0
     a6e:	015a                	slli	sp,sp,0x16
     a70:	0030                	addi	a2,sp,8
     a72:	0000                	unimp
     a74:	0000f40b          	.4byte	0xf40b
     a78:	5700                	lw	s0,40(a4)
     a7a:	15000003          	lb	zero,336(zero) # 150 <_start-0x7ffffeb0>
     a7e:	0000008f          	.4byte	0x8f
     a82:	007f                	.2byte	0x7f
     a84:	7e11                	lui	t3,0xfffe4
     a86:	57000003          	lb	zero,1392(zero) # 570 <_start-0x7ffffa90>
     a8a:	a406                	fsd	ft1,8(sp)
     a8c:	0001                	nop
     a8e:	0080                	addi	s0,sp,64
     a90:	0000                	unimp
     a92:	1a00                	addi	s0,sp,304
     a94:	0000                	unimp
     a96:	0000                	unimp
     a98:	0000                	unimp
     a9a:	0100                	addi	s0,sp,128
     a9c:	b49c                	fsd	fa5,40(s1)
     a9e:	22000003          	lb	zero,544(zero) # 220 <_start-0x7ffffde0>
     aa2:	0000053f ae0c5801 	.8byte	0xae0c58010000053f
     aaa:	0000                	unimp
     aac:	1600                	addi	s0,sp,800
     aae:	00727473          	csrrci	s0,0x7,4
     ab2:	b459                	j	538 <_start-0x7ffffac8>
     ab4:	02000003          	lb	zero,32(zero) # 20 <_start-0x7fffffe0>
     ab8:	6091                	lui	ra,0x4
     aba:	0001b817          	auipc	a6,0x1b
     abe:	0080                	addi	s0,sp,64
     ac0:	0000                	unimp
     ac2:	8200                	.2byte	0x8200
     ac4:	0002                	c.slli64	zero
     ac6:	0100                	addi	s0,sp,128
     ac8:	5a01                	li	s4,-32
     aca:	7202                	ld	tp,32(sp)
     acc:	0100                	addi	s0,sp,128
     ace:	5b01                	li	s6,-32
     ad0:	0309                	addi	t1,t1,2
     ad2:	1308                	addi	a0,sp,416
     ad4:	8000                	.2byte	0x8000
     ad6:	0000                	unimp
     ad8:	0000                	unimp
     ada:	0101                	addi	sp,sp,0
     adc:	015c                	addi	a5,sp,132
     ade:	0030                	addi	a2,sp,8
     ae0:	0b00                	addi	s0,sp,400
     ae2:	00f4                	addi	a3,sp,76
     ae4:	0000                	unimp
     ae6:	03c4                	addi	s1,sp,452
     ae8:	0000                	unimp
     aea:	8f15                	sub	a4,a4,a3
     aec:	0000                	unimp
     aee:	0f00                	addi	s0,sp,912
     af0:	0400                	addi	s0,sp,512
     af2:	045d                	addi	s0,s0,23
     af4:	0000                	unimp
     af6:	0455                	addi	s0,s0,21
     af8:	0409                	addi	s0,s0,2
     afa:	0000                	unimp
     afc:	0454                	addi	a3,sp,516
     afe:	00000547          	fmsub.s	fa0,ft0,ft0,ft0,rne
     b02:	04870453          	.4byte	0x4870453
     b06:	0000                	unimp
     b08:	0452                	slli	s0,s0,0x14
     b0a:	04d5                	addi	s1,s1,21
     b0c:	0000                	unimp
     b0e:	0451                	addi	s0,s0,20
     b10:	0505                	addi	a0,a0,1
     b12:	0000                	unimp
     b14:	0450                	addi	a2,sp,516
     b16:	0446                	slli	s0,s0,0x11
     b18:	0000                	unimp
     b1a:	0522044f          	.4byte	0x522044f
     b1e:	0000                	unimp
     b20:	044e                	slli	s0,s0,0x13
     b22:	03e9                	addi	t2,t2,26
     b24:	0000                	unimp
     b26:	044d                	addi	s0,s0,19
     b28:	04a1                	addi	s1,s1,8
     b2a:	0000                	unimp
     b2c:	234c                	fld	fa1,128(a4)
     b2e:	03c0                	addi	s0,sp,452
     b30:	0000                	unimp
     b32:	4b01                	li	s6,0
     b34:	0106                	slli	sp,sp,0x1
     b36:	3a18                	fld	fa4,48(a2)
     b38:	0004                	.2byte	0x4
     b3a:	4100                	lw	s0,0(a0)
     b3c:	0180                	addi	s0,sp,192
     b3e:	8000                	.2byte	0x8000
     b40:	0000                	unimp
     b42:	0000                	unimp
     b44:	000e                	c.slli	zero,0x3
     b46:	0000                	unimp
     b48:	0000                	unimp
     b4a:	0000                	unimp
     b4c:	9c01                	subw	s0,s0,s0
     b4e:	00000433          	add	s0,zero,zero
     b52:	8e24                	.2byte	0x8e24
     b54:	0001                	nop
     b56:	0080                	addi	s0,sp,64
     b58:	0000                	unimp
     b5a:	3300                	fld	fs0,32(a4)
     b5c:	0004                	.2byte	0x4
     b5e:	0000                	unimp
     b60:	b518                	fsd	fa4,40(a0)
     b62:	16000003          	lb	zero,352(zero) # 160 <_start-0x7ffffea0>
     b66:	016e                	slli	sp,sp,0x1b
     b68:	8000                	.2byte	0x8000
     b6a:	0000                	unimp
     b6c:	0000                	unimp
     b6e:	0012                	c.slli	zero,0x4
     b70:	0000                	unimp
     b72:	0000                	unimp
     b74:	0000                	unimp
     b76:	9c01                	subw	s0,s0,s0
     b78:	045f 0000 3209      	.byte	0x5f, 0x04, 0x00, 0x00, 0x09, 0x32
     b7e:	0004                	.2byte	0x4
     b80:	1700                	addi	s0,sp,928
     b82:	c40e                	sw	gp,8(sp)
     b84:	0000                	unimp
     b86:	3900                	fld	fs0,48(a0)
     b88:	00000003          	lb	zero,0(zero) # 0 <_start-0x80000000>
     b8c:	f711                	bnez	a4,a98 <_start-0x7ffff568>
     b8e:	0000                	unimp
     b90:	0600                	addi	s0,sp,768
     b92:	e60d                	bnez	a2,bbc <_start-0x7ffff444>
     b94:	0000                	unimp
     b96:	0080                	addi	s0,sp,64
     b98:	0000                	unimp
     b9a:	8800                	.2byte	0x8800
     b9c:	0000                	unimp
     b9e:	0000                	unimp
     ba0:	0000                	unimp
     ba2:	0100                	addi	s0,sp,128
     ba4:	bf9c                	fsd	fa5,56(a5)
     ba6:	0005                	c.nop	1
     ba8:	0900                	addi	s0,sp,144
     baa:	0429                	addi	s0,s0,10
     bac:	0000                	unimp
     bae:	0c08                	addi	a0,sp,528
     bb0:	00c4                	addi	s1,sp,68
     bb2:	0000                	unimp
     bb4:	0366                	slli	t1,t1,0x19
     bb6:	0000                	unimp
     bb8:	7316                	ld	t1,352(sp)
     bba:	7274                	ld	a3,224(a2)
     bbc:	0900                	addi	s0,sp,144
     bbe:	00000347          	fmsub.s	ft6,ft0,ft0,ft0,rne
     bc2:	7ef09103          	lh	sp,2031(ra) # 47ef <_start-0x7fffb811>
     bc6:	fc05                	bnez	s0,afe <_start-0x7ffff502>
     bc8:	0000                	unimp
     bca:	0080                	addi	s0,sp,64
     bcc:	0000                	unimp
     bce:	8200                	.2byte	0x8200
     bd0:	0002                	c.slli64	zero
     bd2:	be00                	fsd	fs0,56(a2)
     bd4:	0004                	.2byte	0x4
     bd6:	0100                	addi	s0,sp,128
     bd8:	5a01                	li	s4,-32
     bda:	7202                	ld	tp,32(sp)
     bdc:	0100                	addi	s0,sp,128
     bde:	5b01                	li	s6,-32
     be0:	0309                	addi	t1,t1,2
     be2:	12c8                	addi	a0,sp,356
     be4:	8000                	.2byte	0x8000
     be6:	0000                	unimp
     be8:	0000                	unimp
     bea:	0500                	addi	s0,sp,640
     bec:	0102                	c.slli64	sp
     bee:	8000                	.2byte	0x8000
     bf0:	0000                	unimp
     bf2:	0000                	unimp
     bf4:	026c                	addi	a1,sp,268
     bf6:	0000                	unimp
     bf8:	04d6                	slli	s1,s1,0x15
     bfa:	0000                	unimp
     bfc:	0101                	addi	sp,sp,0
     bfe:	025a                	slli	tp,tp,0x16
     c00:	0072                	c.slli	zero,0x1c
     c02:	0500                	addi	s0,sp,640
     c04:	0114                	addi	a3,sp,128
     c06:	8000                	.2byte	0x8000
     c08:	0000                	unimp
     c0a:	0000                	unimp
     c0c:	023d                	addi	tp,tp,15 # 100f <_start-0x7fffeff1>
     c0e:	0000                	unimp
     c10:	04fc                	addi	a5,sp,588
     c12:	0000                	unimp
     c14:	0101                	addi	sp,sp,0
     c16:	055a                	slli	a0,a0,0x16
     c18:	000c                	.2byte	0xc
     c1a:	01a0                	addi	s0,sp,200
     c1c:	0110                	addi	a2,sp,128
     c1e:	5b01                	li	s6,-32
     c20:	7202                	ld	tp,32(sp)
     c22:	0100                	addi	s0,sp,128
     c24:	5d01                	li	s10,-32
     c26:	3001                	.2byte	0x3001
     c28:	0500                	addi	s0,sp,640
     c2a:	0126                	slli	sp,sp,0x9
     c2c:	8000                	.2byte	0x8000
     c2e:	0000                	unimp
     c30:	0000                	unimp
     c32:	0282                	c.slli64	t0
     c34:	0000                	unimp
     c36:	0521                	addi	a0,a0,8
     c38:	0000                	unimp
     c3a:	0101                	addi	sp,sp,0
     c3c:	025a                	slli	tp,tp,0x16
     c3e:	0072                	c.slli	zero,0x1c
     c40:	0101                	addi	sp,sp,0
     c42:	d803095b          	.4byte	0xd803095b
     c46:	0012                	c.slli	zero,0x4
     c48:	0080                	addi	s0,sp,64
     c4a:	0000                	unimp
     c4c:	0000                	unimp
     c4e:	2c05                	addiw	s8,s8,1
     c50:	0001                	nop
     c52:	0080                	addi	s0,sp,64
     c54:	0000                	unimp
     c56:	6c00                	ld	s0,24(s0)
     c58:	0002                	c.slli64	zero
     c5a:	3900                	fld	fs0,48(a0)
     c5c:	0005                	c.nop	1
     c5e:	0100                	addi	s0,sp,128
     c60:	5a01                	li	s4,-32
     c62:	7202                	ld	tp,32(sp)
     c64:	0000                	unimp
     c66:	3e05                	addiw	t3,t3,-31 # fffffffffffe3fe1 <__global_pointer$+0xffffffff7ffe2379>
     c68:	0001                	nop
     c6a:	0080                	addi	s0,sp,64
     c6c:	0000                	unimp
     c6e:	3d00                	fld	fs0,56(a0)
     c70:	0002                	c.slli64	zero
     c72:	5f00                	lw	s0,56(a4)
     c74:	0005                	c.nop	1
     c76:	0100                	addi	s0,sp,128
     c78:	5a01                	li	s4,-32
     c7a:	0c05                	addi	s8,s8,1
     c7c:	a000                	fsd	fs0,0(s0)
     c7e:	1001                	c.nop	-32
     c80:	0101                	addi	sp,sp,0
     c82:	0072025b          	.4byte	0x72025b
     c86:	0101                	addi	sp,sp,0
     c88:	015d                	addi	sp,sp,23
     c8a:	0030                	addi	a2,sp,8
     c8c:	5005                	c.li	zero,-31
     c8e:	0001                	nop
     c90:	0080                	addi	s0,sp,64
     c92:	0000                	unimp
     c94:	8200                	.2byte	0x8200
     c96:	0002                	c.slli64	zero
     c98:	8400                	.2byte	0x8400
     c9a:	0005                	c.nop	1
     c9c:	0100                	addi	s0,sp,128
     c9e:	5a01                	li	s4,-32
     ca0:	7202                	ld	tp,32(sp)
     ca2:	0100                	addi	s0,sp,128
     ca4:	5b01                	li	s6,-32
     ca6:	0309                	addi	t1,t1,2
     ca8:	12f0                	addi	a2,sp,364
     caa:	8000                	.2byte	0x8000
     cac:	0000                	unimp
     cae:	0000                	unimp
     cb0:	0500                	addi	s0,sp,640
     cb2:	0156                	slli	sp,sp,0x15
     cb4:	8000                	.2byte	0x8000
     cb6:	0000                	unimp
     cb8:	0000                	unimp
     cba:	026c                	addi	a1,sp,268
     cbc:	0000                	unimp
     cbe:	059c                	addi	a5,sp,704
     cc0:	0000                	unimp
     cc2:	0101                	addi	sp,sp,0
     cc4:	025a                	slli	tp,tp,0x16
     cc6:	0072                	c.slli	zero,0x1c
     cc8:	1700                	addi	s0,sp,928
     cca:	0168                	addi	a0,sp,140
     ccc:	8000                	.2byte	0x8000
     cce:	0000                	unimp
     cd0:	0000                	unimp
     cd2:	023d                	addi	tp,tp,15 # f <_start-0x7ffffff1>
     cd4:	0000                	unimp
     cd6:	0101                	addi	sp,sp,0
     cd8:	055a                	slli	a0,a0,0x16
     cda:	000c                	.2byte	0xc
     cdc:	01a0                	addi	s0,sp,200
     cde:	0110                	addi	a2,sp,128
     ce0:	5b01                	li	s6,-32
     ce2:	7202                	ld	tp,32(sp)
     ce4:	0100                	addi	s0,sp,128
     ce6:	5d01                	li	s10,-32
     ce8:	3001                	.2byte	0x3001
     cea:	0000                	unimp
     cec:	0025                	c.nop	9
     cee:	0004                	.2byte	0x4
     cf0:	8e00                	.2byte	0x8e00
     cf2:	0001                	nop
     cf4:	0080                	addi	s0,sp,64
     cf6:	0000                	unimp
     cf8:	0200                	addi	s0,sp,256
     cfa:	0000                	unimp
     cfc:	0000                	unimp
     cfe:	0000                	unimp
     d00:	0100                	addi	s0,sp,128
     d02:	009c                	addi	a5,sp,64
     d04:	0164                	addi	s1,sp,140
     d06:	0000                	unimp
     d08:	0005                	c.nop	1
     d0a:	0801                	addi	a6,a6,0 # 1baba <_start-0x7ffe4546>
     d0c:	046c                	addi	a1,sp,524
     d0e:	0000                	unimp
     d10:	ca04                	sw	s1,16(a2)
     d12:	0001                	nop
     d14:	1d00                	addi	s0,sp,688
     d16:	0000028b          	.4byte	0x28b
     d1a:	0000                	unimp
     d1c:	0000                	unimp
     d1e:	0208                	addi	a0,sp,256
     d20:	8000                	.2byte	0x8000
     d22:	0000                	unimp
     d24:	0000                	unimp
     d26:	0028                	addi	a0,sp,8
     d28:	0000                	unimp
     d2a:	0000                	unimp
     d2c:	0000                	unimp
     d2e:	0956                	slli	s2,s2,0x15
     d30:	0000                	unimp
     d32:	0101                	addi	sp,sp,0
     d34:	be06                	fsd	ft1,312(sp)
     d36:	0001                	nop
     d38:	0100                	addi	s0,sp,128
     d3a:	0801                	addi	a6,a6,0
     d3c:	01bc                	addi	a5,sp,200
     d3e:	0000                	unimp
     d40:	0201                	addi	tp,tp,0 # 0 <_start-0x80000000>
     d42:	a505                	j	1362 <_start-0x7fffec9e>
     d44:	0000                	unimp
     d46:	0100                	addi	s0,sp,128
     d48:	0702                	c.slli64	a4
     d4a:	000002bb          	addw	t0,zero,zero
     d4e:	0405                	addi	s0,s0,1
     d50:	6905                	lui	s2,0x1
     d52:	746e                	ld	s0,248(sp)
     d54:	0100                	addi	s0,sp,128
     d56:	0704                	addi	s1,sp,896
     d58:	028c                	addi	a1,sp,320
     d5a:	0000                	unimp
     d5c:	0801                	addi	a6,a6,0
     d5e:	1505                	addi	a0,a0,-31
     d60:	0001                	nop
     d62:	0200                	addi	s0,sp,256
     d64:	02df 0000 6902      	.byte	0xdf, 0x02, 0x00, 0x00, 0x02, 0x69
     d6a:	6b19                	lui	s6,0x6
     d6c:	0000                	unimp
     d6e:	0100                	addi	s0,sp,128
     d70:	0708                	addi	a0,sp,896
     d72:	00000287          	.4byte	0x287
     d76:	e102                	sd	zero,128(sp)
     d78:	0002                	c.slli64	zero
     d7a:	0300                	addi	s0,sp,384
     d7c:	143c                	addi	a5,sp,552
     d7e:	005f 0000 6606      	.byte	0x5f, 0x00, 0x00, 0x00, 0x06, 0x66
     d84:	0005                	c.nop	1
     d86:	0400                	addi	s0,sp,512
     d88:	00720a0b          	.4byte	0x720a0b
     d8c:	0000                	unimp
     d8e:	0090                	addi	a2,sp,64
     d90:	0000                	unimp
     d92:	f7080007          	.4byte	0xf7080007
     d96:	0002                	c.slli64	zero
     d98:	0100                	addi	s0,sp,128
     d9a:	060c                	addi	a1,sp,768
     d9c:	020c                	addi	a1,sp,256
     d9e:	8000                	.2byte	0x8000
     da0:	0000                	unimp
     da2:	0000                	unimp
     da4:	0024                	addi	s1,sp,8
     da6:	0000                	unimp
     da8:	0000                	unimp
     daa:	0000                	unimp
     dac:	9c01                	subw	s0,s0,s0
     dae:	0000011b          	sext.w	sp,zero
     db2:	6109                	addi	sp,sp,128
     db4:	0005                	c.nop	1
     db6:	0100                	addi	s0,sp,128
     db8:	190c                	addi	a1,sp,176
     dba:	0072                	c.slli	zero,0x1c
     dbc:	0000                	unimp
     dbe:	03c0                	addi	s0,sp,452
     dc0:	0000                	unimp
     dc2:	790a                	ld	s2,160(sp)
     dc4:	0005                	c.nop	1
     dc6:	0100                	addi	s0,sp,128
     dc8:	0c0d                	addi	s8,s8,3
     dca:	0072                	c.slli	zero,0x1c
     dcc:	0000                	unimp
     dce:	03fd                	addi	t2,t2,31
     dd0:	0000                	unimp
     dd2:	00011b0b          	.4byte	0x11b0b
     dd6:	0c00                	addi	s0,sp,528
     dd8:	0002                	c.slli64	zero
     dda:	0080                	addi	s0,sp,64
     ddc:	0000                	unimp
     dde:	d100                	sw	s0,32(a0)
     de0:	0000                	unimp
     de2:	0100                	addi	s0,sp,128
     de4:	1a0d                	addi	s4,s4,-29
     de6:	00f4                	addi	a3,sp,76
     de8:	0000                	unimp
     dea:	00021803          	lh	a6,0(tp) # 0 <_start-0x80000000>
     dee:	0080                	addi	s0,sp,64
     df0:	0000                	unimp
     df2:	7e00                	ld	s0,56(a2)
     df4:	0000                	unimp
     df6:	0000                	unimp
     df8:	1b0c                	addi	a1,sp,432
     dfa:	0001                	nop
     dfc:	2000                	fld	fs0,0(s0)
     dfe:	0002                	c.slli64	zero
     e00:	0080                	addi	s0,sp,64
     e02:	0000                	unimp
     e04:	0400                	addi	s0,sp,512
     e06:	0000                	unimp
     e08:	0000                	unimp
     e0a:	0000                	unimp
     e0c:	0100                	addi	s0,sp,128
     e0e:	0a0e                	slli	s4,s4,0x3
     e10:	00022403          	lw	s0,0(tp) # 0 <_start-0x80000000>
     e14:	0080                	addi	s0,sp,64
     e16:	0000                	unimp
     e18:	7e00                	ld	s0,56(a2)
     e1a:	0000                	unimp
     e1c:	0000                	unimp
     e1e:	0d00                	addi	s0,sp,656
     e20:	0585                	addi	a1,a1,1
     e22:	0000                	unimp
     e24:	0801                	addi	a6,a6,0
     e26:	720a                	ld	tp,160(sp)
     e28:	0000                	unimp
     e2a:	0100                	addi	s0,sp,128
     e2c:	a70e                	fsd	ft3,392(sp)
     e2e:	0001                	nop
     e30:	0100                	addi	s0,sp,128
     e32:	0604                	addi	s1,sp,768
     e34:	0208                	addi	a0,sp,256
     e36:	8000                	.2byte	0x8000
     e38:	0000                	unimp
     e3a:	0000                	unimp
     e3c:	0002                	c.slli64	zero
     e3e:	0000                	unimp
     e40:	0000                	unimp
     e42:	0000                	unimp
     e44:	9c01                	subw	s0,s0,s0
     e46:	00011b0f          	.4byte	0x11b0f
     e4a:	0a00                	addi	s0,sp,272
     e4c:	0002                	c.slli64	zero
     e4e:	0080                	addi	s0,sp,64
     e50:	0000                	unimp
     e52:	0200                	addi	s0,sp,256
     e54:	0000                	unimp
     e56:	0000                	unimp
     e58:	0000                	unimp
     e5a:	0100                	addi	s0,sp,128
     e5c:	109c                	addi	a5,sp,96
     e5e:	020c                	addi	a1,sp,256
     e60:	8000                	.2byte	0x8000
     e62:	0000                	unimp
     e64:	0000                	unimp
     e66:	007e                	c.slli	zero,0x1f
     e68:	0000                	unimp
     e6a:	0000                	unimp
     e6c:	0145                	addi	sp,sp,17
     e6e:	0000                	unimp
     e70:	0005                	c.nop	1
     e72:	0801                	addi	a6,a6,0
     e74:	056e                	slli	a0,a0,0x1b
     e76:	0000                	unimp
     e78:	ca04                	sw	s1,16(a2)
     e7a:	0001                	nop
     e7c:	1d00                	addi	s0,sp,688
     e7e:	02c1                	addi	t0,t0,16
     e80:	0000                	unimp
     e82:	0000                	unimp
     e84:	0000                	unimp
     e86:	0230                	addi	a2,sp,264
     e88:	8000                	.2byte	0x8000
     e8a:	0000                	unimp
     e8c:	0000                	unimp
     e8e:	0014                	.2byte	0x14
     e90:	0000                	unimp
     e92:	0000                	unimp
     e94:	0000                	unimp
     e96:	0a6a                	slli	s4,s4,0x1a
     e98:	0000                	unimp
     e9a:	0102                	c.slli64	sp
     e9c:	be06                	fsd	ft1,312(sp)
     e9e:	0001                	nop
     ea0:	0200                	addi	s0,sp,256
     ea2:	0801                	addi	a6,a6,0
     ea4:	01bc                	addi	a5,sp,200
     ea6:	0000                	unimp
     ea8:	0202                	c.slli64	tp
     eaa:	a505                	j	14ca <_start-0x7fffeb36>
     eac:	0000                	unimp
     eae:	0200                	addi	s0,sp,256
     eb0:	0702                	c.slli64	a4
     eb2:	000002bb          	addw	t0,zero,zero
     eb6:	0405                	addi	s0,s0,1
     eb8:	6905                	lui	s2,0x1
     eba:	746e                	ld	s0,248(sp)
     ebc:	0300                	addi	s0,sp,384
     ebe:	00cd                	addi	ra,ra,19
     ec0:	0000                	unimp
     ec2:	4f02                	lw	t5,0(sp)
     ec4:	5d19                	li	s10,-26
     ec6:	0000                	unimp
     ec8:	0200                	addi	s0,sp,256
     eca:	0704                	addi	s1,sp,896
     ecc:	028c                	addi	a1,sp,320
     ece:	0000                	unimp
     ed0:	0802                	c.slli64	a6
     ed2:	1505                	addi	a0,a0,-31
     ed4:	0001                	nop
     ed6:	0200                	addi	s0,sp,256
     ed8:	0708                	addi	a0,sp,896
     eda:	00000287          	.4byte	0x287
     ede:	0000cf03          	lbu	t5,0(ra)
     ee2:	0300                	addi	s0,sp,384
     ee4:	1430                	addi	a2,sp,552
     ee6:	0051                	c.nop	20
     ee8:	0000                	unimp
     eea:	0706                	slli	a4,a4,0x1
     eec:	5d04                	lw	s1,56(a0)
     eee:	0000                	unimp
     ef0:	0400                	addi	s0,sp,512
     ef2:	0e10                	addi	a2,sp,784
     ef4:	00d5                	addi	ra,ra,21
     ef6:	0000                	unimp
     ef8:	a901                	j	1308 <_start-0x7fffecf8>
     efa:	0005                	c.nop	1
     efc:	0000                	unimp
     efe:	df01                	beqz	a4,e16 <_start-0x7ffff1ea>
     f00:	0005                	c.nop	1
     f02:	0100                	addi	s0,sp,128
     f04:	9101                	srli	a0,a0,0x20
     f06:	0005                	c.nop	1
     f08:	0200                	addi	s0,sp,256
     f0a:	4e01                	li	t3,0
     f0c:	0006                	c.slli	zero,0x1
     f0e:	0300                	addi	s0,sp,384
     f10:	bb01                	j	c20 <_start-0x7ffff3e0>
     f12:	0005                	c.nop	1
     f14:	0400                	addi	s0,sp,512
     f16:	8501                	c.srai64	a0
     f18:	0006                	c.slli	zero,0x1
     f1a:	0500                	addi	s0,sp,640
     f1c:	ca01                	beqz	a2,f2c <_start-0x7ffff0d4>
     f1e:	0005                	c.nop	1
     f20:	0600                	addi	s0,sp,768
     f22:	9a01                	andi	a2,a2,-32
     f24:	0006                	c.slli	zero,0x1
     f26:	0700                	addi	s0,sp,896
     f28:	0a01                	addi	s4,s4,0
     f2a:	0006                	c.slli	zero,0x1
     f2c:	0800                	addi	s0,sp,16
     f2e:	6301                	.2byte	0x6301
     f30:	0006                	c.slli	zero,0x1
     f32:	0900                	addi	s0,sp,144
     f34:	2101                	sext.w	sp,sp
     f36:	0006                	c.slli	zero,0x1
     f38:	0a00                	addi	s0,sp,272
     f3a:	3901                	addiw	s2,s2,-32 # fe0 <_start-0x7ffff020>
     f3c:	0006                	c.slli	zero,0x1
     f3e:	0b00                	addi	s0,sp,400
     f40:	0300                	addi	s0,sp,384
     f42:	0000067b          	.4byte	0x67b
     f46:	1d04                	addi	s1,sp,688
     f48:	00007e03          	.4byte	0x7e03
     f4c:	0700                	addi	s0,sp,896
     f4e:	000005f7          	.4byte	0x5f7
     f52:	0b01                	addi	s6,s6,0 # 6000 <_start-0x7fffa000>
     f54:	3806                	fld	fa6,96(sp)
     f56:	0002                	c.slli64	zero
     f58:	0080                	addi	s0,sp,64
     f5a:	0000                	unimp
     f5c:	0c00                	addi	s0,sp,528
     f5e:	0000                	unimp
     f60:	0000                	unimp
     f62:	0000                	unimp
     f64:	0100                	addi	s0,sp,128
     f66:	209c                	fld	fa5,0(s1)
     f68:	0001                	nop
     f6a:	0800                	addi	s0,sp,16
     f6c:	065e                	slli	a2,a2,0x17
     f6e:	0000                	unimp
     f70:	0b01                	addi	s6,s6,0
     f72:	0000d523          	.4byte	0xd523
     f76:	0100                	addi	s0,sp,128
     f78:	095a                	slli	s2,s2,0x16
     f7a:	061c                	addi	a5,sp,768
     f7c:	0000                	unimp
     f7e:	0c01                	addi	s8,s8,0
     f80:	720c                	ld	a1,32(a2)
     f82:	0000                	unimp
     f84:	0500                	addi	s0,sp,640
     f86:	7a31                	lui	s4,0xfffec
     f88:	2400                	fld	fs0,8(s0)
     f8a:	009f ac0a 0006      	.byte	0x9f, 0x00, 0x0a, 0xac, 0x06, 0x00
     f90:	0100                	addi	s0,sp,128
     f92:	0605                	addi	a2,a2,1 # fffffffffffe0001 <__global_pointer$+0xffffffff7ffde399>
     f94:	0230                	addi	a2,sp,264
     f96:	8000                	.2byte	0x8000
     f98:	0000                	unimp
     f9a:	0000                	unimp
     f9c:	0008                	.2byte	0x8
     f9e:	0000                	unimp
     fa0:	0000                	unimp
     fa2:	0000                	unimp
     fa4:	9c01                	subw	s0,s0,s0
     fa6:	00061c0b          	.4byte	0x61c0b
     faa:	0100                	addi	s0,sp,128
     fac:	00720c07          	.4byte	0x720c07
     fb0:	0000                	unimp
     fb2:	0008                	.2byte	0x8
     fb4:	b000                	fsd	fs0,32(s0)
     fb6:	0001                	nop
     fb8:	0500                	addi	s0,sp,640
     fba:	0100                	addi	s0,sp,128
     fbc:	2808                	fld	fa0,16(s0)
     fbe:	0006                	c.slli	zero,0x1
     fc0:	0900                	addi	s0,sp,144
     fc2:	01ca                	slli	gp,gp,0x12
     fc4:	0000                	unimp
     fc6:	de1d                	beqz	a2,f04 <_start-0x7ffff0fc>
     fc8:	0002                	c.slli64	zero
     fca:	0000                	unimp
     fcc:	0000                	unimp
     fce:	4400                	lw	s0,8(s0)
     fd0:	0002                	c.slli64	zero
     fd2:	0080                	addi	s0,sp,64
     fd4:	0000                	unimp
     fd6:	3200                	fld	fs0,32(a2)
     fd8:	0000                	unimp
     fda:	0000                	unimp
     fdc:	0000                	unimp
     fde:	1a00                	addi	s0,sp,304
     fe0:	0100000b          	.4byte	0x100000b
     fe4:	0601                	addi	a2,a2,0
     fe6:	01be                	slli	gp,gp,0xf
     fe8:	0000                	unimp
     fea:	0101                	addi	sp,sp,0
     fec:	bc08                	fsd	fa0,56(s0)
     fee:	0001                	nop
     ff0:	0100                	addi	s0,sp,128
     ff2:	0502                	c.slli64	a0
     ff4:	00a5                	addi	ra,ra,9
     ff6:	0000                	unimp
     ff8:	0201                	addi	tp,tp,0 # 0 <_start-0x80000000>
     ffa:	0002bb07          	fld	fs6,0(t0)
     ffe:	0a00                	addi	s0,sp,272
    1000:	0504                	addi	s1,sp,640
    1002:	6e69                	lui	t3,0x1a
    1004:	0074                	addi	a3,sp,12
    1006:	cd02                	sw	zero,152(sp)
    1008:	0000                	unimp
    100a:	0200                	addi	s0,sp,256
    100c:	005d194f          	fnmadd.s	fs2,fs10,ft5,ft0,rtz
    1010:	0000                	unimp
    1012:	0401                	addi	s0,s0,0
    1014:	00028c07          	.4byte	0x28c07
    1018:	0100                	addi	s0,sp,128
    101a:	0508                	addi	a0,sp,640
    101c:	0115                	addi	sp,sp,5
    101e:	0000                	unimp
    1020:	df02                	sw	zero,188(sp)
    1022:	0002                	c.slli64	zero
    1024:	0200                	addi	s0,sp,256
    1026:	1969                	addi	s2,s2,-6
    1028:	00000077          	.4byte	0x77
    102c:	0801                	addi	a6,a6,0
    102e:	00028707          	.4byte	0x28707
    1032:	0200                	addi	s0,sp,256
    1034:	000000cf          	fnmadd.s	ft1,ft0,ft0,ft0,rne
    1038:	51143003          	ld	zero,1297(s0)
    103c:	0000                	unimp
    103e:	0400                	addi	s0,sp,512
    1040:	007e                	c.slli	zero,0x1f
    1042:	0000                	unimp
    1044:	e102                	sd	zero,128(sp)
    1046:	0002                	c.slli64	zero
    1048:	0300                	addi	s0,sp,384
    104a:	143c                	addi	a5,sp,552
    104c:	0000006b          	.4byte	0x6b
    1050:	8f04                	.2byte	0x8f04
    1052:	0000                	unimp
    1054:	0b00                	addi	s0,sp,400
    1056:	c000                	sw	s0,0(s0)
    1058:	2504                	fld	fs1,8(a0)
    105a:	ea09                	bnez	a2,106c <_start-0x7fffef94>
    105c:	0000                	unimp
    105e:	0500                	addi	s0,sp,640
    1060:	0500                	addi	s0,sp,640
    1062:	0000                	unimp
    1064:	1126                	slli	sp,sp,0x29
    1066:	008a                	slli	ra,ra,0x2
    1068:	0000                	unimp
    106a:	0500                	addi	s0,sp,640
    106c:	04c1                	addi	s1,s1,16
    106e:	0000                	unimp
    1070:	00ea0c27          	.4byte	0xea0c27
    1074:	0000                	unimp
    1076:	0304                	addi	s1,sp,384
    1078:	03e0                	addi	s0,sp,460
    107a:	0000                	unimp
    107c:	1128                	addi	a0,sp,168
    107e:	0000009b          	sext.w	ra,zero
    1082:	4000                	lw	s0,0(s0)
    1084:	0004cb03          	lbu	s6,0(s1)
    1088:	2900                	fld	fs0,16(a0)
    108a:	fb0c                	sd	a1,48(a4)
    108c:	0000                	unimp
    108e:	0800                	addi	s0,sp,16
    1090:	0340                	addi	s0,sp,388
    1092:	03da                	slli	t2,t2,0x16
    1094:	0000                	unimp
    1096:	112a                	slli	sp,sp,0x2a
    1098:	0000009b          	sext.w	ra,zero
    109c:	bff8                	fsd	fa4,248(a5)
    109e:	0600                	addi	s0,sp,768
    10a0:	007e                	c.slli	zero,0x1f
    10a2:	0000                	unimp
    10a4:	000000fb          	.4byte	0xfb
    10a8:	00007707          	.4byte	0x7707
    10ac:	fe00                	sd	s0,56(a2)
    10ae:	7e06000f          	.4byte	0x7e06000f
    10b2:	0000                	unimp
    10b4:	0c00                	addi	s0,sp,528
    10b6:	0001                	nop
    10b8:	0700                	addi	s0,sp,896
    10ba:	00000077          	.4byte	0x77
    10be:	02001ffb          	.4byte	0x2001ffb
    10c2:	04f2                	slli	s1,s1,0x1c
    10c4:	0000                	unimp
    10c6:	2b04                	fld	fs1,16(a4)
    10c8:	0000a003          	lw	zero,0(ra)
    10cc:	0c00                	addi	s0,sp,528
    10ce:	06cd                	addi	a3,a3,19
    10d0:	0000                	unimp
    10d2:	1501                	addi	a0,a0,-32
    10d4:	6a06                	ld	s4,64(sp)
    10d6:	0002                	c.slli64	zero
    10d8:	0080                	addi	s0,sp,64
    10da:	0000                	unimp
    10dc:	0c00                	addi	s0,sp,528
    10de:	0000                	unimp
    10e0:	0000                	unimp
    10e2:	0000                	unimp
    10e4:	0100                	addi	s0,sp,128
    10e6:	479c                	lw	a5,8(a5)
    10e8:	0001                	nop
    10ea:	0d00                	addi	s0,sp,656
    10ec:	0561                	addi	a0,a0,24
    10ee:	0000                	unimp
    10f0:	1501                	addi	a0,a0,-32
    10f2:	8f25                	xor	a4,a4,s1
    10f4:	0000                	unimp
    10f6:	1d00                	addi	s0,sp,688
    10f8:	0004                	.2byte	0x4
    10fa:	0000                	unimp
    10fc:	660e                	ld	a2,192(sp)
    10fe:	0005                	c.nop	1
    1100:	0100                	addi	s0,sp,128
    1102:	0a09                	addi	s4,s4,2 # fffffffffffec002 <__global_pointer$+0xffffffff7ffea39a>
    1104:	0000008f          	.4byte	0x8f
    1108:	0258                	addi	a4,sp,260
    110a:	8000                	.2byte	0x8000
    110c:	0000                	unimp
    110e:	0000                	unimp
    1110:	0012                	c.slli	zero,0x4
    1112:	0000                	unimp
    1114:	0000                	unimp
    1116:	0000                	unimp
    1118:	9c01                	subw	s0,s0,s0
    111a:	018a                	slli	gp,gp,0x2
    111c:	0000                	unimp
    111e:	c508                	sw	a0,8(a0)
    1120:	0006                	c.slli	zero,0x1
    1122:	0a00                	addi	s0,sp,272
    1124:	007e                	c.slli	zero,0x1f
    1126:	0000                	unimp
    1128:	0c05                	addi	s8,s8,1
    112a:	bff8                	fsd	fa4,248(a5)
    112c:	0200                	addi	s0,sp,256
    112e:	e308                	sd	a0,0(a4)
    1130:	0006                	c.slli	zero,0x1
    1132:	0b00                	addi	s0,sp,400
    1134:	007e                	c.slli	zero,0x1f
    1136:	0000                	unimp
    1138:	0c05                	addi	s8,s8,1
    113a:	bffc                	fsd	fa5,248(a5)
    113c:	0200                	addi	s0,sp,256
    113e:	0f00                	addi	s0,sp,912
    1140:	06f2                	slli	a3,a3,0x1c
    1142:	0000                	unimp
    1144:	0501                	addi	a0,a0,0
    1146:	4406                	lw	s0,64(sp)
    1148:	0002                	c.slli64	zero
    114a:	0080                	addi	s0,sp,64
    114c:	0000                	unimp
    114e:	1400                	addi	s0,sp,544
    1150:	0000                	unimp
    1152:	0000                	unimp
    1154:	0000                	unimp
    1156:	0100                	addi	s0,sp,128
    1158:	109c                	addi	a5,sp,96
    115a:	000006eb          	.4byte	0x6eb
    115e:	0501                	addi	a0,a0,0
    1160:	7e2a                	ld	t3,168(sp)
    1162:	0000                	unimp
    1164:	0100                	addi	s0,sp,128
    1166:	005a                	c.slli	zero,0x16
    1168:	3c00                	fld	fs0,56(s0)
    116a:	0002                	c.slli64	zero
    116c:	0500                	addi	s0,sp,640
    116e:	0100                	addi	s0,sp,128
    1170:	3108                	fld	fa0,32(a0)
    1172:	07000007          	.4byte	0x7000007
    1176:	01ca                	slli	gp,gp,0x12
    1178:	0000                	unimp
    117a:	fc1d                	bnez	s0,10b8 <_start-0x7fffef48>
    117c:	0002                	c.slli64	zero
    117e:	0000                	unimp
    1180:	0000                	unimp
    1182:	7600                	ld	s0,40(a2)
    1184:	0002                	c.slli64	zero
    1186:	0080                	addi	s0,sp,64
    1188:	0000                	unimp
    118a:	2600                	fld	fs0,8(a2)
    118c:	0000                	unimp
    118e:	0000                	unimp
    1190:	0000                	unimp
    1192:	4400                	lw	s0,8(s0)
    1194:	000c                	.2byte	0xc
    1196:	0200                	addi	s0,sp,256
    1198:	0601                	addi	a2,a2,0
    119a:	01be                	slli	gp,gp,0xf
    119c:	0000                	unimp
    119e:	00016503          	lwu	a0,0(sp)
    11a2:	0200                	addi	s0,sp,256
    11a4:	0041182b          	.4byte	0x41182b
    11a8:	0000                	unimp
    11aa:	0102                	c.slli64	sp
    11ac:	bc08                	fsd	fa0,56(s0)
    11ae:	0001                	nop
    11b0:	0200                	addi	s0,sp,256
    11b2:	0502                	c.slli64	a0
    11b4:	00a5                	addi	ra,ra,9
    11b6:	0000                	unimp
    11b8:	0202                	c.slli64	tp
    11ba:	0002bb07          	fld	fs6,0(t0)
    11be:	0800                	addi	s0,sp,16
    11c0:	0504                	addi	s1,sp,640
    11c2:	6e69                	lui	t3,0x1a
    11c4:	0074                	addi	a3,sp,12
    11c6:	0000cd03          	lbu	s10,0(ra)
    11ca:	0200                	addi	s0,sp,256
    11cc:	0069194f          	fnmadd.s	fs2,fs2,ft6,ft0,rtz
    11d0:	0000                	unimp
    11d2:	0402                	c.slli64	s0
    11d4:	00028c07          	.4byte	0x28c07
    11d8:	0200                	addi	s0,sp,256
    11da:	0508                	addi	a0,sp,640
    11dc:	0115                	addi	sp,sp,5
    11de:	0000                	unimp
    11e0:	0802                	c.slli64	a6
    11e2:	00028707          	.4byte	0x28707
    11e6:	0300                	addi	s0,sp,384
    11e8:	00000167          	jalr	sp,zero # 0 <_start-0x80000000>
    11ec:	35131803          	lh	a6,849(t1)
    11f0:	0000                	unimp
    11f2:	0300                	addi	s0,sp,384
    11f4:	000000cf          	fnmadd.s	ft1,ft0,ft0,ft0,rne
    11f8:	5d143003          	ld	zero,1489(s0)
    11fc:	0000                	unimp
    11fe:	0900                	addi	s0,sp,144
    1200:	008a                	slli	ra,ra,0x2
    1202:	0000                	unimp
    1204:	960a                	add	a2,a2,sp
    1206:	0000                	unimp
    1208:	0b00                	addi	s0,sp,400
    120a:	043c                	addi	a5,sp,520
    120c:	0931                	addi	s2,s2,12
    120e:	014e                	slli	sp,sp,0x13
    1210:	0000                	unimp
    1212:	2401                	sext.w	s0,s0
    1214:	32000007          	.4byte	0x32000007
    1218:	0000009b          	sext.w	ra,zero
    121c:	0100                	addi	s0,sp,128
    121e:	07aa                	slli	a5,a5,0xa
    1220:	0000                	unimp
    1222:	00009633          	sll	a2,ra,zero
    1226:	0400                	addi	s0,sp,512
    1228:	1a01                	addi	s4,s4,-32
    122a:	34000007          	.4byte	0x34000007
    122e:	0096                	slli	ra,ra,0x5
    1230:	0000                	unimp
    1232:	0108                	addi	a0,sp,128
    1234:	07ce                	slli	a5,a5,0x13
    1236:	0000                	unimp
    1238:	9635                	srai	a2,a2,0x2d
    123a:	0000                	unimp
    123c:	0c00                	addi	s0,sp,528
    123e:	5005                	c.li	zero,-31
    1240:	4555                	li	a0,21
    1242:	3600                	fld	fs0,40(a2)
    1244:	0096                	slli	ra,ra,0x5
    1246:	0000                	unimp
    1248:	0510                	addi	a2,sp,640
    124a:	5344                	lw	s1,36(a4)
    124c:	3700                	fld	fs0,40(a4)
    124e:	0096                	slli	ra,ra,0x5
    1250:	0000                	unimp
    1252:	0114                	addi	a3,sp,128
    1254:	0000073b          	addw	a4,zero,zero
    1258:	9638                	.2byte	0x9638
    125a:	0000                	unimp
    125c:	1800                	addi	s0,sp,48
    125e:	4301                	li	t1,0
    1260:	39000007          	.4byte	0x39000007
    1264:	0000009b          	sext.w	ra,zero
    1268:	011c                	addi	a5,sp,128
    126a:	00000783          	lb	a5,0(zero) # 0 <_start-0x80000000>
    126e:	963a                	add	a2,a2,a4
    1270:	0000                	unimp
    1272:	2000                	fld	fs0,0(s0)
    1274:	8b01                	andi	a4,a4,0
    1276:	3b000007          	.4byte	0x3b000007
    127a:	0000009b          	sext.w	ra,zero
    127e:	0124                	addi	s1,sp,136
    1280:	000007b3          	add	a5,zero,zero
    1284:	963c                	.2byte	0x963c
    1286:	0000                	unimp
    1288:	2800                	fld	fs0,16(s0)
    128a:	c601                	beqz	a2,1292 <_start-0x7fffed6e>
    128c:	3d000007          	.4byte	0x3d000007
    1290:	0000009b          	sext.w	ra,zero
    1294:	012c                	addi	a1,sp,136
    1296:	0762                	slli	a4,a4,0x18
    1298:	0000                	unimp
    129a:	963e                	add	a2,a2,a5
    129c:	0000                	unimp
    129e:	3000                	fld	fs0,32(s0)
    12a0:	2e01                	sext.w	t3,t3
    12a2:	3f000007          	.4byte	0x3f000007
    12a6:	0000009b          	sext.w	ra,zero
    12aa:	0134                	addi	a3,sp,136
    12ac:	0000077b          	.4byte	0x77b
    12b0:	9640                	.2byte	0x9640
    12b2:	0000                	unimp
    12b4:	3800                	fld	fs0,48(s0)
    12b6:	0300                	addi	s0,sp,384
    12b8:	070d                	addi	a4,a4,3
    12ba:	0000                	unimp
    12bc:	4104                	lw	s1,0(a0)
    12be:	0000a003          	lw	zero,0(ra)
    12c2:	0c00                	addi	s0,sp,528
    12c4:	00690407          	.4byte	0x690407
    12c8:	0000                	unimp
    12ca:	0b05                	addi	s6,s6,1
    12cc:	6f0e                	ld	t5,192(sp)
    12ce:	0001                	nop
    12d0:	0d00                	addi	s0,sp,656
    12d2:	000007bb          	addw	a5,zero,zero
    12d6:	0001                	nop
    12d8:	00075903          	lhu	s2,0(a4)
    12dc:	0500                	addi	s0,sp,640
    12de:	030d                	addi	t1,t1,3
    12e0:	015a                	slli	sp,sp,0x16
    12e2:	0000                	unimp
    12e4:	690e                	ld	s2,192(sp)
    12e6:	01000007          	.4byte	0x1000007
    12ea:	060c                	addi	a1,sp,768
    12ec:	0288                	addi	a0,sp,320
    12ee:	8000                	.2byte	0x8000
    12f0:	0000                	unimp
    12f2:	0000                	unimp
    12f4:	0014                	.2byte	0x14
    12f6:	0000                	unimp
    12f8:	0000                	unimp
    12fa:	0000                	unimp
    12fc:	9c01                	subw	s0,s0,s0
    12fe:	01c4                	addi	s1,sp,196
    1300:	0000                	unimp
    1302:	a404                	fsd	fs1,8(s0)
    1304:	0c000007          	.4byte	0xc000007
    1308:	c426                	sw	s1,8(sp)
    130a:	0001                	nop
    130c:	0100                	addi	s0,sp,128
    130e:	0f5a                	slli	t5,t5,0x16
    1310:	6970                	ld	a2,208(a0)
    1312:	006e                	c.slli	zero,0x1b
    1314:	0c01                	addi	s8,s8,0
    1316:	6f36                	ld	t5,328(sp)
    1318:	0001                	nop
    131a:	5300                	lw	s0,32(a4)
    131c:	0004                	.2byte	0x4
    131e:	0400                	addi	s0,sp,512
    1320:	0735                	addi	a4,a4,13
    1322:	0000                	unimp
    1324:	430c                	lw	a1,0(a4)
    1326:	007e                	c.slli	zero,0x1f
    1328:	0000                	unimp
    132a:	5c01                	li	s8,-32
    132c:	1000                	addi	s0,sp,32
    132e:	4e08                	lw	a0,24(a2)
    1330:	0001                	nop
    1332:	1100                	addi	s0,sp,160
    1334:	00000793          	li	a5,0
    1338:	0801                	addi	a6,a6,0
    133a:	7e09                	lui	t3,0xfffe2
    133c:	0000                	unimp
    133e:	7e00                	ld	s0,56(a2)
    1340:	0002                	c.slli64	zero
    1342:	0080                	addi	s0,sp,64
    1344:	0000                	unimp
    1346:	0a00                	addi	s0,sp,272
    1348:	0000                	unimp
    134a:	0000                	unimp
    134c:	0000                	unimp
    134e:	0100                	addi	s0,sp,128
    1350:	0a9c                	addi	a5,sp,336
    1352:	0002                	c.slli64	zero
    1354:	1200                	addi	s0,sp,288
    1356:	07a4                	addi	s1,sp,968
    1358:	0000                	unimp
    135a:	0801                	addi	a6,a6,0
    135c:	c428                	sw	a0,72(s0)
    135e:	0001                	nop
    1360:	7d00                	ld	s0,56(a0)
    1362:	0004                	.2byte	0x4
    1364:	0600                	addi	s0,sp,768
    1366:	6970                	ld	a2,208(a0)
    1368:	006e                	c.slli	zero,0x1b
    136a:	3808                	fld	fa0,48(s0)
    136c:	0000016f          	jal	sp,136c <_start-0x7fffec94>
    1370:	5b01                	li	s6,-32
    1372:	1300                	addi	s0,sp,416
    1374:	0000074b          	fnmsub.s	fa4,ft0,ft0,ft0,rne
    1378:	0401                	addi	s0,s0,0
    137a:	7606                	ld	a2,96(sp)
    137c:	0002                	c.slli64	zero
    137e:	0080                	addi	s0,sp,64
    1380:	0000                	unimp
    1382:	0800                	addi	s0,sp,16
    1384:	0000                	unimp
    1386:	0000                	unimp
    1388:	0000                	unimp
    138a:	0100                	addi	s0,sp,128
    138c:	049c                	addi	a5,sp,576
    138e:	07a4                	addi	s1,sp,968
    1390:	0000                	unimp
    1392:	2204                	fld	fs1,0(a2)
    1394:	01c4                	addi	s1,sp,196
    1396:	0000                	unimp
    1398:	5a01                	li	s4,-32
    139a:	7006                	.2byte	0x7006
    139c:	6e69                	lui	t3,0x1a
    139e:	0400                	addi	s0,sp,512
    13a0:	6f32                	ld	t5,264(sp)
    13a2:	0001                	nop
    13a4:	0100                	addi	s0,sp,128
    13a6:	5300005b          	.4byte	0x5300005b
    13aa:	0000                	unimp
    13ac:	0500                	addi	s0,sp,640
    13ae:	0100                	addi	s0,sp,128
    13b0:	6908                	ld	a0,16(a0)
    13b2:	0008                	.2byte	0x8
    13b4:	0200                	addi	s0,sp,256
    13b6:	01ca                	slli	gp,gp,0x12
    13b8:	0000                	unimp
    13ba:	291d                	addiw	s2,s2,7
    13bc:	00000003          	lb	zero,0(zero) # 0 <_start-0x80000000>
    13c0:	0000                	unimp
    13c2:	2700                	fld	fs0,8(a4)
    13c4:	000d                	c.nop	3
    13c6:	0100                	addi	s0,sp,128
    13c8:	0601                	addi	a2,a2,0
    13ca:	01be                	slli	gp,gp,0xf
    13cc:	0000                	unimp
    13ce:	0101                	addi	sp,sp,0
    13d0:	bc08                	fsd	fa0,56(s0)
    13d2:	0001                	nop
    13d4:	0100                	addi	s0,sp,128
    13d6:	0502                	c.slli64	a0
    13d8:	00a5                	addi	ra,ra,9
    13da:	0000                	unimp
    13dc:	0201                	addi	tp,tp,0 # 0 <_start-0x80000000>
    13de:	0002bb07          	fld	fs6,0(t0)
    13e2:	0300                	addi	s0,sp,384
    13e4:	0504                	addi	s1,sp,640
    13e6:	6e69                	lui	t3,0x1a
    13e8:	0074                	addi	a3,sp,12
    13ea:	0401                	addi	s0,s0,0
    13ec:	00028c07          	.4byte	0x28c07
    13f0:	0100                	addi	s0,sp,128
    13f2:	0508                	addi	a0,sp,640
    13f4:	0115                	addi	sp,sp,5
    13f6:	0000                	unimp
    13f8:	0801                	addi	a6,a6,0
    13fa:	00028707          	.4byte	0x28707
    13fe:	0000                	unimp
    1400:	007d                	c.nop	31
    1402:	0000                	unimp
    1404:	0005                	c.nop	1
    1406:	0801                	addi	a6,a6,0
    1408:	0000088f          	.4byte	0x88f
    140c:	ca02                	sw	zero,20(sp)
    140e:	0001                	nop
    1410:	1d00                	addi	s0,sp,688
    1412:	0346                	slli	t1,t1,0x11
    1414:	0000                	unimp
    1416:	0000                	unimp
    1418:	0000                	unimp
    141a:	029c                	addi	a5,sp,320
    141c:	8000                	.2byte	0x8000
    141e:	0000                	unimp
    1420:	0000                	unimp
    1422:	0002                	c.slli64	zero
    1424:	0000                	unimp
    1426:	0000                	unimp
    1428:	0000                	unimp
    142a:	0d5c                	addi	a5,sp,660
    142c:	0000                	unimp
    142e:	0101                	addi	sp,sp,0
    1430:	be06                	fsd	ft1,312(sp)
    1432:	0001                	nop
    1434:	0100                	addi	s0,sp,128
    1436:	0801                	addi	a6,a6,0
    1438:	01bc                	addi	a5,sp,200
    143a:	0000                	unimp
    143c:	0201                	addi	tp,tp,0 # 0 <_start-0x80000000>
    143e:	a505                	j	1a5e <_start-0x7fffe5a2>
    1440:	0000                	unimp
    1442:	0100                	addi	s0,sp,128
    1444:	0702                	c.slli64	a4
    1446:	000002bb          	addw	t0,zero,zero
    144a:	69050403          	lb	s0,1680(a0)
    144e:	746e                	ld	s0,248(sp)
    1450:	0100                	addi	s0,sp,128
    1452:	0704                	addi	s1,sp,896
    1454:	028c                	addi	a1,sp,320
    1456:	0000                	unimp
    1458:	0801                	addi	a6,a6,0
    145a:	1505                	addi	a0,a0,-31
    145c:	0001                	nop
    145e:	0100                	addi	s0,sp,128
    1460:	0708                	addi	a0,sp,896
    1462:	00000287          	.4byte	0x287
    1466:	d904                	sw	s1,48(a0)
    1468:	01000007          	.4byte	0x1000007
    146c:	0604                	addi	s1,sp,768
    146e:	029c                	addi	a5,sp,320
    1470:	8000                	.2byte	0x8000
    1472:	0000                	unimp
    1474:	0000                	unimp
    1476:	0002                	c.slli64	zero
    1478:	0000                	unimp
    147a:	0000                	unimp
    147c:	0000                	unimp
    147e:	9c01                	subw	s0,s0,s0
    1480:	2100                	fld	fs0,0(a0)
    1482:	05000003          	lb	zero,80(zero) # 50 <_start-0x7fffffb0>
    1486:	0100                	addi	s0,sp,128
    1488:	d008                	sw	a0,32(s0)
    148a:	0008                	.2byte	0x8
    148c:	1000                	addi	s0,sp,32
    148e:	01ca                	slli	gp,gp,0x12
    1490:	0000                	unimp
    1492:	621d                	lui	tp,0x7
    1494:	00000003          	lb	zero,0(zero) # 0 <_start-0x80000000>
    1498:	0000                	unimp
    149a:	9e00                	.2byte	0x9e00
    149c:	0002                	c.slli64	zero
    149e:	0080                	addi	s0,sp,64
    14a0:	0000                	unimp
    14a2:	7800                	ld	s0,48(s0)
    14a4:	0000                	unimp
    14a6:	0000                	unimp
    14a8:	0000                	unimp
    14aa:	b200                	fsd	fs0,32(a2)
    14ac:	000d                	c.nop	3
    14ae:	0200                	addi	s0,sp,256
    14b0:	0601                	addi	a2,a2,0
    14b2:	01be                	slli	gp,gp,0xf
    14b4:	0000                	unimp
    14b6:	6501                	.2byte	0x6501
    14b8:	0001                	nop
    14ba:	0200                	addi	s0,sp,256
    14bc:	0041182b          	.4byte	0x41182b
    14c0:	0000                	unimp
    14c2:	0102                	c.slli64	sp
    14c4:	bc08                	fsd	fa0,56(s0)
    14c6:	0001                	nop
    14c8:	0200                	addi	s0,sp,256
    14ca:	0502                	c.slli64	a0
    14cc:	00a5                	addi	ra,ra,9
    14ce:	0000                	unimp
    14d0:	d801                	beqz	s0,13e0 <_start-0x7fffec20>
    14d2:	0000                	unimp
    14d4:	0200                	addi	s0,sp,256
    14d6:	1939                	addi	s2,s2,-18
    14d8:	0000005b          	.4byte	0x5b
    14dc:	0202                	c.slli64	tp
    14de:	0002bb07          	fld	fs6,0(t0)
    14e2:	1100                	addi	s0,sp,160
    14e4:	0504                	addi	s1,sp,640
    14e6:	6e69                	lui	t3,0x1a
    14e8:	0074                	addi	a3,sp,12
    14ea:	cd01                	beqz	a0,1502 <_start-0x7fffeafe>
    14ec:	0000                	unimp
    14ee:	0200                	addi	s0,sp,256
    14f0:	0075194f          	fnmadd.s	fs2,fa0,ft7,ft0,rtz
    14f4:	0000                	unimp
    14f6:	0402                	c.slli64	s0
    14f8:	00028c07          	.4byte	0x28c07
    14fc:	0200                	addi	s0,sp,256
    14fe:	0508                	addi	a0,sp,640
    1500:	0115                	addi	sp,sp,5
    1502:	0000                	unimp
    1504:	0802                	c.slli64	a6
    1506:	00028707          	.4byte	0x28707
    150a:	0100                	addi	s0,sp,128
    150c:	00000167          	jalr	sp,zero # 0 <_start-0x80000000>
    1510:	35131803          	lh	a6,849(t1)
    1514:	0000                	unimp
    1516:	0100                	addi	s0,sp,128
    1518:	00da                	slli	ra,ra,0x16
    151a:	0000                	unimp
    151c:	4f142403          	lw	s0,1265(s0)
    1520:	0000                	unimp
    1522:	0100                	addi	s0,sp,128
    1524:	000000cf          	fnmadd.s	ft1,ft0,ft0,ft0,rne
    1528:	69143003          	ld	zero,1681(s0)
    152c:	0000                	unimp
    152e:	1200                	addi	s0,sp,288
    1530:	00a2                	slli	ra,ra,0x8
    1532:	0000                	unimp
    1534:	0000ae13          	slti	t3,ra,0
    1538:	1400                	addi	s0,sp,544
    153a:	00750407          	.4byte	0x750407
    153e:	0000                	unimp
    1540:	1804                	addi	s1,sp,48
    1542:	de0e                	sw	gp,60(sp)
    1544:	0000                	unimp
    1546:	1500                	addi	s0,sp,672
    1548:	00004b4f          	fnmadd.s	fs6,ft0,ft0,ft0,rmm
    154c:	8406                	mv	s0,ra
    154e:	0001                	nop
    1550:	0100                	addi	s0,sp,128
    1552:	a206                	fsd	ft1,256(sp)
    1554:	0001                	nop
    1556:	0200                	addi	s0,sp,256
    1558:	3006                	fld	ft0,96(sp)
    155a:	0001                	nop
    155c:	0300                	addi	s0,sp,384
    155e:	0100                	addi	s0,sp,128
    1560:	0332                	slli	t1,t1,0xc
    1562:	0000                	unimp
    1564:	1d04                	addi	s1,sp,688
    1566:	0000b803          	ld	a6,0(ra)
    156a:	0900                	addi	s0,sp,144
    156c:	051c                	addi	a5,sp,640
    156e:	4646                	lw	a2,80(sp)
    1570:	0001                	nop
    1572:	0400                	addi	s0,sp,512
    1574:	0350                	addi	a2,sp,388
    1576:	0000                	unimp
    1578:	4705                	li	a4,1
    157a:	ae11                	j	188e <_start-0x7fffe772>
    157c:	0000                	unimp
    157e:	0000                	unimp
    1580:	5704                	lw	s1,40(a4)
    1582:	05000003          	lb	zero,80(zero) # 50 <_start-0x7fffffb0>
    1586:	1148                	addi	a0,sp,164
    1588:	000000b3          	add	ra,zero,zero
    158c:	0404                	addi	s1,sp,512
    158e:	0370                	addi	a2,sp,396
    1590:	0000                	unimp
    1592:	4905                	li	s2,1
    1594:	ae11                	j	18a8 <_start-0x7fffe758>
    1596:	0000                	unimp
    1598:	0800                	addi	s0,sp,16
    159a:	7704                	ld	s1,40(a4)
    159c:	05000003          	lb	zero,80(zero) # 50 <_start-0x7fffffb0>
    15a0:	114a                	slli	sp,sp,0x32
    15a2:	00ae                	slli	ra,ra,0xb
    15a4:	0000                	unimp
    15a6:	070c                	addi	a1,sp,896
    15a8:	4549                	li	a0,18
    15aa:	4b00                	lw	s0,16(a4)
    15ac:	00ae                	slli	ra,ra,0xb
    15ae:	0000                	unimp
    15b0:	0710                	addi	a2,sp,896
    15b2:	5049                	c.li	zero,-14
    15b4:	4c00                	lw	s0,24(s0)
    15b6:	000000b3          	add	ra,zero,zero
    15ba:	0714                	addi	a3,sp,896
    15bc:	4944                	lw	s1,20(a0)
    15be:	0056                	c.slli	zero,0x15
    15c0:	ae4d                	j	1972 <_start-0x7fffe68e>
    15c2:	0000                	unimp
    15c4:	1800                	addi	s0,sp,48
    15c6:	0100                	addi	s0,sp,128
    15c8:	02ea                	slli	t0,t0,0x1a
    15ca:	0000                	unimp
    15cc:	4e05                	li	t3,1
    15ce:	0000ea03          	lwu	s4,0(ra)
    15d2:	0900                	addi	s0,sp,144
    15d4:	0604                	addi	s1,sp,768
    15d6:	680c                	ld	a1,16(s0)
    15d8:	0001                	nop
    15da:	0400                	addi	s0,sp,512
    15dc:	018a                	slli	gp,gp,0x2
    15de:	0000                	unimp
    15e0:	0d06                	slli	s10,s10,0x1
    15e2:	a20c                	fsd	fa1,0(a2)
    15e4:	0000                	unimp
    15e6:	0000                	unimp
    15e8:	0100                	addi	s0,sp,128
    15ea:	026c                	addi	a1,sp,268
    15ec:	0000                	unimp
    15ee:	0e06                	slli	t3,t3,0x1
    15f0:	00015203          	lhu	tp,0(sp)
    15f4:	0a00                	addi	s0,sp,272
    15f6:	00b6                	slli	ra,ra,0xd
    15f8:	0000                	unimp
    15fa:	de22                	sw	s0,60(sp)
    15fc:	0000                	unimp
    15fe:	f600                	sd	s0,40(a2)
    1600:	0002                	c.slli64	zero
    1602:	0080                	addi	s0,sp,64
    1604:	0000                	unimp
    1606:	2000                	fld	fs0,0(s0)
    1608:	0000                	unimp
    160a:	0000                	unimp
    160c:	0000                	unimp
    160e:	0100                	addi	s0,sp,128
    1610:	ec9c                	sd	a5,24(s1)
    1612:	0001                	nop
    1614:	0300                	addi	s0,sp,384
    1616:	07f1                	addi	a5,a5,28
    1618:	0000                	unimp
    161a:	2822                	fld	fa6,8(sp)
    161c:	01ec                	addi	a1,sp,204
    161e:	0000                	unimp
    1620:	000004b3          	add	s1,zero,zero
    1624:	00080f03          	lb	t5,0(a6)
    1628:	2200                	fld	fs0,0(a2)
    162a:	f138                	sd	a4,96(a0)
    162c:	0001                	nop
    162e:	f000                	sd	s0,32(s0)
    1630:	0004                	.2byte	0x4
    1632:	0300                	addi	s0,sp,384
    1634:	0814                	addi	a3,sp,16
    1636:	0000                	unimp
    1638:	4722                	lw	a4,8(sp)
    163a:	0096                	slli	ra,ra,0x5
    163c:	0000                	unimp
    163e:	00000517          	auipc	a0,0x0
    1642:	4205                	li	tp,1
    1644:	0008                	.2byte	0x8
    1646:	2200                	fld	fs0,0(a2)
    1648:	a256                	fsd	fs5,256(sp)
    164a:	0000                	unimp
    164c:	0100                	addi	s0,sp,128
    164e:	0b5d                	addi	s6,s6,23
    1650:	026e                	slli	tp,tp,0x1b
    1652:	0000                	unimp
    1654:	02fc                	addi	a5,sp,332
    1656:	8000                	.2byte	0x8000
    1658:	0000                	unimp
    165a:	0000                	unimp
    165c:	0006                	c.slli	zero,0x1
    165e:	0000                	unimp
    1660:	0000                	unimp
    1662:	0000                	unimp
    1664:	0c24                	addi	s1,sp,536
    1666:	7c0c                	ld	a1,56(s0)
    1668:	0002                	c.slli64	zero
    166a:	0000                	unimp
    166c:	0800                	addi	s0,sp,16
    166e:	0146                	slli	sp,sp,0x11
    1670:	0000                	unimp
    1672:	8a08                	.2byte	0x8a08
    1674:	0000                	unimp
    1676:	0a00                	addi	s0,sp,272
    1678:	0831                	addi	a6,a6,12
    167a:	0000                	unimp
    167c:	de16                	sw	t0,60(sp)
    167e:	0000                	unimp
    1680:	d600                	sw	s0,40(a2)
    1682:	0002                	c.slli64	zero
    1684:	0080                	addi	s0,sp,64
    1686:	0000                	unimp
    1688:	2000                	fld	fs0,0(s0)
    168a:	0000                	unimp
    168c:	0000                	unimp
    168e:	0000                	unimp
    1690:	0100                	addi	s0,sp,128
    1692:	6e9c                	ld	a5,24(a3)
    1694:	0002                	c.slli64	zero
    1696:	0300                	addi	s0,sp,384
    1698:	07f1                	addi	a5,a5,28
    169a:	0000                	unimp
    169c:	2716                	fld	fa4,320(sp)
    169e:	01ec                	addi	a1,sp,204
    16a0:	0000                	unimp
    16a2:	053e                	slli	a0,a0,0xf
    16a4:	0000                	unimp
    16a6:	00080f03          	lb	t5,0(a6)
    16aa:	1600                	addi	s0,sp,800
    16ac:	0001f137          	lui	sp,0x1f
    16b0:	7b00                	ld	s0,48(a4)
    16b2:	0005                	c.nop	1
    16b4:	0300                	addi	s0,sp,384
    16b6:	0814                	addi	a3,sp,16
    16b8:	0000                	unimp
    16ba:	4616                	lw	a2,68(sp)
    16bc:	0096                	slli	ra,ra,0x5
    16be:	0000                	unimp
    16c0:	05a2                	slli	a1,a1,0x8
    16c2:	0000                	unimp
    16c4:	4205                	li	tp,1
    16c6:	0008                	.2byte	0x8
    16c8:	1600                	addi	s0,sp,800
    16ca:	a255                	j	186e <_start-0x7fffe792>
    16cc:	0000                	unimp
    16ce:	0100                	addi	s0,sp,128
    16d0:	0b5d                	addi	s6,s6,23
    16d2:	00000287          	.4byte	0x287
    16d6:	02dc                	addi	a5,sp,324
    16d8:	8000                	.2byte	0x8000
    16da:	0000                	unimp
    16dc:	0000                	unimp
    16de:	0006                	c.slli	zero,0x1
    16e0:	0000                	unimp
    16e2:	0000                	unimp
    16e4:	0000                	unimp
    16e6:	0d18                	addi	a4,sp,656
    16e8:	950c                	.2byte	0x950c
    16ea:	0002                	c.slli64	zero
    16ec:	0000                	unimp
    16ee:	0d00                	addi	s0,sp,656
    16f0:	0819                	addi	a6,a6,6
    16f2:	0000                	unimp
    16f4:	8a12                	mv	s4,tp
    16f6:	0000                	unimp
    16f8:	8700                	.2byte	0x8700
    16fa:	0002                	c.slli64	zero
    16fc:	0e00                	addi	s0,sp,784
    16fe:	07f1                	addi	a5,a5,28
    1700:	0000                	unimp
    1702:	ec12                	sd	tp,24(sp)
    1704:	0001                	nop
    1706:	0000                	unimp
    1708:	f70d                	bnez	a4,1632 <_start-0x7fffe9ce>
    170a:	0e000007          	.4byte	0xe000007
    170e:	008a                	slli	ra,ra,0x2
    1710:	0000                	unimp
    1712:	02a0                	addi	s0,sp,328
    1714:	0000                	unimp
    1716:	f10e                	sd	gp,160(sp)
    1718:	0e000007          	.4byte	0xe000007
    171c:	01ec                	addi	a1,sp,204
    171e:	0000                	unimp
    1720:	1600                	addi	s0,sp,800
    1722:	005c                	addi	a5,sp,4
    1724:	0000                	unimp
    1726:	0401                	addi	s0,s0,0
    1728:	9e06                	add	t3,t3,ra
    172a:	0002                	c.slli64	zero
    172c:	0080                	addi	s0,sp,64
    172e:	0000                	unimp
    1730:	2400                	fld	fs0,8(s0)
    1732:	0000                	unimp
    1734:	0000                	unimp
    1736:	0000                	unimp
    1738:	0100                	addi	s0,sp,128
    173a:	d99c                	sw	a5,48(a1)
    173c:	0002                	c.slli64	zero
    173e:	0500                	addi	s0,sp,640
    1740:	07f1                	addi	a5,a5,28
    1742:	0000                	unimp
    1744:	2204                	fld	fs1,0(a2)
    1746:	01ec                	addi	a1,sp,204
    1748:	0000                	unimp
    174a:	5a01                	li	s4,-32
    174c:	6005                	c.lui	zero,0x1
    174e:	0000                	unimp
    1750:	0400                	addi	s0,sp,512
    1752:	0002d93b          	srlw	s2,t0,zero
    1756:	0100                	addi	s0,sp,128
    1758:	6808005b          	.4byte	0x6808005b
    175c:	0001                	nop
    175e:	1700                	addi	s0,sp,928
    1760:	00000287          	.4byte	0x287
    1764:	02c2                	slli	t0,t0,0x10
    1766:	8000                	.2byte	0x8000
    1768:	0000                	unimp
    176a:	0000                	unimp
    176c:	000a                	c.slli	zero,0x2
    176e:	0000                	unimp
    1770:	0000                	unimp
    1772:	0000                	unimp
    1774:	9c01                	subw	s0,s0,s0
    1776:	00000303          	lb	t1,0(zero) # 0 <_start-0x80000000>
    177a:	0002950f          	.4byte	0x2950f
    177e:	c900                	sw	s0,16(a0)
    1780:	0005                	c.nop	1
    1782:	0000                	unimp
    1784:	6e18                	ld	a4,24(a2)
    1786:	0002                	c.slli64	zero
    1788:	cc00                	sw	s0,24(s0)
    178a:	0002                	c.slli64	zero
    178c:	0080                	addi	s0,sp,64
    178e:	0000                	unimp
    1790:	0a00                	addi	s0,sp,272
    1792:	0000                	unimp
    1794:	0000                	unimp
    1796:	0000                	unimp
    1798:	0100                	addi	s0,sp,128
    179a:	0f9c                	addi	a5,sp,976
    179c:	027c                	addi	a5,sp,268
    179e:	0000                	unimp
    17a0:	000005f3          	.4byte	0x5f3
	...

Disassembly of section .debug_abbrev:

0000000000000000 <.debug_abbrev>:
   0:	1101                	addi	sp,sp,-32 # 1efe0 <_start-0x7ffe1020>
   2:	1000                	addi	s0,sp,32
   4:	03175517          	auipc	a0,0x3175
   8:	1b0e                	slli	s6,s6,0x23
   a:	250e                	fld	fa0,192(sp)
   c:	130e                	slli	t1,t1,0x23
   e:	0005                	c.nop	1
  10:	0000                	unimp
  12:	4901                	li	s2,0
  14:	0200                	addi	s0,sp,256
  16:	7e18                	ld	a4,56(a2)
  18:	0018                	.2byte	0x18
  1a:	0200                	addi	s0,sp,256
  1c:	0016                	c.slli	zero,0x5
  1e:	0b3a0e03          	lb	t3,179(s4)
  22:	0b390b3b          	.4byte	0xb390b3b
  26:	1349                	addi	t1,t1,-14
  28:	0000                	unimp
  2a:	0b002403          	lw	s0,176(zero) # b0 <_start-0x7fffff50>
  2e:	030b3e0b          	.4byte	0x30b3e0b
  32:	000e                	c.slli	zero,0x3
  34:	0400                	addi	s0,sp,512
  36:	0148                	addi	a0,sp,132
  38:	017d                	addi	sp,sp,31
  3a:	137f                	.2byte	0x137f
  3c:	1301                	addi	t1,t1,-32
  3e:	0000                	unimp
  40:	0505                	addi	a0,a0,1 # 3175005 <_start-0x7ce8affb>
  42:	4900                	lw	s0,16(a0)
  44:	06000013          	li	zero,96
  48:	210b000f          	.4byte	0x210b000f
  4c:	4908                	lw	a0,16(a0)
  4e:	07000013          	li	zero,112
  52:	000d                	c.nop	3
  54:	0b3a0e03          	lb	t3,179(s4)
  58:	0b390b3b          	.4byte	0xb390b3b
  5c:	1349                	addi	t1,t1,-14
  5e:	0b38                	addi	a4,sp,408
  60:	0000                	unimp
  62:	3408                	fld	fa0,40(s0)
  64:	0300                	addi	s0,sp,384
  66:	3a0e                	fld	fs4,224(sp)
  68:	0121                	addi	sp,sp,8
  6a:	0b390b3b          	.4byte	0xb390b3b
  6e:	1349                	addi	t1,t1,-14
  70:	1702                	slli	a4,a4,0x20
  72:	0000                	unimp
  74:	0509                	addi	a0,a0,2
  76:	0300                	addi	s0,sp,384
  78:	3a0e                	fld	fs4,224(sp)
  7a:	0121                	addi	sp,sp,8
  7c:	0b390b3b          	.4byte	0xb390b3b
  80:	1349                	addi	t1,t1,-14
  82:	1702                	slli	a4,a4,0x20
  84:	0000                	unimp
  86:	260a                	fld	fa2,128(sp)
  88:	4900                	lw	s0,16(a0)
  8a:	0b000013          	li	zero,176
  8e:	0034                	addi	a3,sp,8
  90:	213a0e03          	lb	t3,531(s4)
  94:	3b01                	addiw	s6,s6,-32
  96:	490b390b          	.4byte	0x490b390b
  9a:	02193f13          	sltiu	t5,s2,33
  9e:	0018                	.2byte	0x18
  a0:	0c00                	addi	s0,sp,528
  a2:	012e                	slli	sp,sp,0xb
  a4:	0e03193f 3b01213a 	.8byte	0x3b01213a0e03193f
  ac:	0621390b          	.4byte	0x621390b
  b0:	01111927          	.4byte	0x1111927
  b4:	0712                	slli	a4,a4,0x4
  b6:	1840                	addi	s0,sp,52
  b8:	197a                	slli	s2,s2,0x3e
  ba:	1301                	addi	t1,t1,-32
  bc:	0000                	unimp
  be:	280d                	addiw	a6,a6,3
  c0:	0300                	addi	s0,sp,384
  c2:	1c0e                	slli	s8,s8,0x23
  c4:	0e00000b          	.4byte	0xe00000b
  c8:	000d                	c.nop	3
  ca:	213a0803          	lb	a6,531(s4)
  ce:	3b06                	fld	fs6,96(sp)
  d0:	1121390b          	.4byte	0x1121390b
  d4:	1349                	addi	t1,t1,-14
  d6:	0b38                	addi	a4,sp,408
  d8:	0000                	unimp
  da:	3f012e0f          	.4byte	0x3f012e0f
  de:	0319                	addi	t1,t1,6
  e0:	3a0e                	fld	fs4,224(sp)
  e2:	390b3b0b          	.4byte	0x390b3b0b
  e6:	4919270b          	.4byte	0x4919270b
  ea:	01193c13          	sltiu	s8,s2,17
  ee:	10000013          	li	zero,256
  f2:	0018                	.2byte	0x18
  f4:	0000                	unimp
  f6:	4811                	li	a6,4
  f8:	7d00                	ld	s0,56(a0)
  fa:	7f01                	lui	t5,0xfffe0
  fc:	12000013          	li	zero,288
 100:	0005                	c.nop	1
 102:	213a0e03          	lb	t3,531(s4)
 106:	3b01                	addiw	s6,s6,-32
 108:	490b390b          	.4byte	0x490b390b
 10c:	00180213          	addi	tp,a6,1
 110:	1300                	addi	s0,sp,416
 112:	0035                	c.nop	13
 114:	1349                	addi	t1,t1,-14
 116:	0000                	unimp
 118:	1314                	addi	a3,sp,416
 11a:	0b01                	addi	s6,s6,0
 11c:	3b0b3a0b          	.4byte	0x3b0b3a0b
 120:	0921390b          	.4byte	0x921390b
 124:	1301                	addi	t1,t1,-32
 126:	0000                	unimp
 128:	2e15                	addiw	t3,t3,5 # 1a005 <_start-0x7ffe5ffb>
 12a:	3f01                	addiw	t5,t5,-32 # fffffffffffdffe0 <__global_pointer$+0xffffffff7ffde378>
 12c:	0319                	addi	t1,t1,6
 12e:	3a0e                	fld	fs4,224(sp)
 130:	390b3b0b          	.4byte	0x390b3b0b
 134:	0621                	addi	a2,a2,8
 136:	193c1927          	.4byte	0x193c1927
 13a:	1301                	addi	t1,t1,-32
 13c:	0000                	unimp
 13e:	2e16                	fld	ft8,320(sp)
 140:	3f01                	addiw	t5,t5,-32
 142:	0319                	addi	t1,t1,6
 144:	3a0e                	fld	fs4,224(sp)
 146:	390b3b0b          	.4byte	0x390b3b0b
 14a:	0621                	addi	a2,a2,8
 14c:	193c                	addi	a5,sp,184
 14e:	1301                	addi	t1,t1,-32
 150:	0000                	unimp
 152:	25011117          	auipc	sp,0x25011
 156:	130e                	slli	t1,t1,0x23
 158:	1b1f030b          	.4byte	0x1b1f030b
 15c:	551f 1117 1001      	.byte	0x1f, 0x55, 0x17, 0x11, 0x01, 0x10
 162:	18000017          	auipc	zero,0x18000
 166:	0024                	addi	s1,sp,8
 168:	0b3e0b0b          	.4byte	0xb3e0b0b
 16c:	00000803          	lb	a6,0(zero) # 0 <_start-0x80000000>
 170:	0419                	addi	s0,s0,6
 172:	3e01                	addiw	t3,t3,-32
 174:	490b0b0b          	.4byte	0x490b0b0b
 178:	3b0b3a13          	sltiu	s4,s6,944
 17c:	010b390b          	.4byte	0x10b390b
 180:	1a000013          	li	zero,416
 184:	0028                	addi	a0,sp,8
 186:	0b1c0803          	lb	a6,177(s8)
 18a:	0000                	unimp
 18c:	4901011b          	addiw	sp,sp,1168 # 250115e2 <_start-0x5afeea1e>
 190:	00130113          	addi	sp,t1,1
 194:	1c00                	addi	s0,sp,560
 196:	0021                	c.nop	8
 198:	1349                	addi	t1,t1,-14
 19a:	0000052f          	.4byte	0x52f
 19e:	341d                	addiw	s0,s0,-25
 1a0:	0300                	addi	s0,sp,384
 1a2:	3a08                	fld	fa0,48(a2)
 1a4:	390b3b0b          	.4byte	0x390b3b0b
 1a8:	3f13490b          	.4byte	0x3f13490b
 1ac:	0219                	addi	tp,tp,6 # 7006 <_start-0x7fff8ffa>
 1ae:	0018                	.2byte	0x18
 1b0:	1e00                	addi	s0,sp,816
 1b2:	0e030113          	addi	sp,t1,224
 1b6:	0b3a0b0b          	.4byte	0xb3a0b0b
 1ba:	0b390b3b          	.4byte	0xb390b3b
 1be:	1301                	addi	t1,t1,-32
 1c0:	0000                	unimp
 1c2:	161f 0300 3a0e      	.byte	0x1f, 0x16, 0x00, 0x03, 0x0e, 0x3a
 1c8:	390b3b0b          	.4byte	0x390b3b0b
 1cc:	8813490b          	.4byte	0x8813490b
 1d0:	0501                	addi	a0,a0,0
 1d2:	0000                	unimp
 1d4:	2e20                	fld	fs0,88(a2)
 1d6:	3f01                	addiw	t5,t5,-32
 1d8:	0319                	addi	t1,t1,6
 1da:	3a0e                	fld	fs4,224(sp)
 1dc:	390b3b0b          	.4byte	0x390b3b0b
 1e0:	1113490b          	.4byte	0x1113490b
 1e4:	1201                	addi	tp,tp,-32 # ffffffffffffffe0 <__global_pointer$+0xffffffff7fffe378>
 1e6:	7a184007          	.4byte	0x7a184007
 1ea:	0119                	addi	sp,sp,6
 1ec:	21000013          	li	zero,528
 1f0:	0034                	addi	a3,sp,8
 1f2:	0b3a0e03          	lb	t3,179(s4)
 1f6:	0b390b3b          	.4byte	0xb390b3b
 1fa:	1349                	addi	t1,t1,-14
 1fc:	1802                	slli	a6,a6,0x20
 1fe:	0000                	unimp
 200:	3422                	fld	fs0,40(sp)
 202:	0300                	addi	s0,sp,384
 204:	3a08                	fld	fa0,48(a2)
 206:	390b3b0b          	.4byte	0x390b3b0b
 20a:	0213490b          	.4byte	0x213490b
 20e:	23000017          	auipc	zero,0x23000
 212:	0034                	addi	a3,sp,8
 214:	0b3a0e03          	lb	t3,179(s4)
 218:	0b390b3b          	.4byte	0xb390b3b
 21c:	1349                	addi	t1,t1,-14
 21e:	0b1c                	addi	a5,sp,400
 220:	0000                	unimp
 222:	4824                	lw	s1,80(s0)
 224:	7d01                	lui	s10,0xfffe0
 226:	7f01                	lui	t5,0xfffe0
 228:	25000013          	li	zero,592
 22c:	012e                	slli	sp,sp,0xb
 22e:	0e03193f 0b3b0b3a 	.8byte	0xb3b0b3a0e03193f
 236:	0b39                	addi	s6,s6,14
 238:	13491927          	.4byte	0x13491927
 23c:	0111                	addi	sp,sp,4
 23e:	0712                	slli	a4,a4,0x4
 240:	1840                	addi	s0,sp,52
 242:	197a                	slli	s2,s2,0x3e
 244:	1301                	addi	t1,t1,-32
 246:	0000                	unimp
 248:	4826                	lw	a6,72(sp)
 24a:	7d00                	ld	s0,56(a0)
 24c:	8201                	c.srli64	a2
 24e:	1901                	addi	s2,s2,-32
 250:	137f                	.2byte	0x137f
 252:	0000                	unimp
 254:	3f002e27          	fsw	fa6,1020(zero) # 3fc <_start-0x7ffffc04>
 258:	3c19                	addiw	s8,s8,-26
 25a:	6e19                	lui	t3,0x6
 25c:	030e                	slli	t1,t1,0x3
 25e:	3a0e                	fld	fs4,224(sp)
 260:	000b3b0b          	.4byte	0xb3b0b
 264:	0000                	unimp
 266:	4901                	li	s2,0
 268:	0200                	addi	s0,sp,256
 26a:	7e18                	ld	a4,56(a2)
 26c:	0018                	.2byte	0x18
 26e:	0200                	addi	s0,sp,256
 270:	0016                	c.slli	zero,0x5
 272:	0b3a0e03          	lb	t3,179(s4)
 276:	0b390b3b          	.4byte	0xb390b3b
 27a:	1349                	addi	t1,t1,-14
 27c:	0000                	unimp
 27e:	0b002403          	lw	s0,176(zero) # b0 <_start-0x7fffff50>
 282:	030b3e0b          	.4byte	0x30b3e0b
 286:	000e                	c.slli	zero,0x3
 288:	0400                	addi	s0,sp,512
 28a:	002e                	c.slli	zero,0xb
 28c:	0e03193f 3b01213a 	.8byte	0x3b01213a0e03193f
 294:	0621390b          	.4byte	0x621390b
 298:	0000                	unimp
 29a:	4805                	li	a6,1
 29c:	7d01                	lui	s10,0xfffe0
 29e:	7f01                	lui	t5,0xfffe0
 2a0:	00130113          	addi	sp,t1,1
 2a4:	0600                	addi	s0,sp,768
 2a6:	0005                	c.nop	1
 2a8:	1349                	addi	t1,t1,-14
 2aa:	0000                	unimp
 2ac:	03000d07          	.4byte	0x3000d07
 2b0:	3a0e                	fld	fs4,224(sp)
 2b2:	0621                	addi	a2,a2,8
 2b4:	0b390b3b          	.4byte	0xb390b3b
 2b8:	1349                	addi	t1,t1,-14
 2ba:	0b38                	addi	a4,sp,408
 2bc:	0000                	unimp
 2be:	1808                	addi	a0,sp,48
 2c0:	0000                	unimp
 2c2:	0900                	addi	s0,sp,144
 2c4:	0034                	addi	a3,sp,8
 2c6:	213a0e03          	lb	t3,531(s4)
 2ca:	3b01                	addiw	s6,s6,-32
 2cc:	490b390b          	.4byte	0x490b390b
 2d0:	00170213          	addi	tp,a4,1
 2d4:	0a00                	addi	s0,sp,272
 2d6:	210b000f          	.4byte	0x210b000f
 2da:	4908                	lw	a0,16(a0)
 2dc:	0b000013          	li	zero,176
 2e0:	0101                	addi	sp,sp,0
 2e2:	1349                	addi	t1,t1,-14
 2e4:	1301                	addi	t1,t1,-32
 2e6:	0000                	unimp
 2e8:	2e0c                	fld	fa1,24(a2)
 2ea:	3f01                	addiw	t5,t5,-32 # fffffffffffdffe0 <__global_pointer$+0xffffffff7ffde378>
 2ec:	0319                	addi	t1,t1,6
 2ee:	3a0e                	fld	fs4,224(sp)
 2f0:	0121                	addi	sp,sp,8
 2f2:	0b390b3b          	.4byte	0xb390b3b
 2f6:	1349                	addi	t1,t1,-14
 2f8:	193c                	addi	a5,sp,184
 2fa:	1301                	addi	t1,t1,-32
 2fc:	0000                	unimp
 2fe:	280d                	addiw	a6,a6,3
 300:	0300                	addi	s0,sp,384
 302:	1c0e                	slli	s8,s8,0x23
 304:	0e00000b          	.4byte	0xe00000b
 308:	000d                	c.nop	3
 30a:	213a0e03          	lb	t3,531(s4)
 30e:	3b06                	fld	fs6,96(sp)
 310:	490b390b          	.4byte	0x490b390b
 314:	00053813          	sltiu	a6,a0,0
 318:	0f00                	addi	s0,sp,912
 31a:	000d                	c.nop	3
 31c:	213a0803          	lb	a6,531(s4)
 320:	3b06                	fld	fs6,96(sp)
 322:	1121390b          	.4byte	0x1121390b
 326:	1349                	addi	t1,t1,-14
 328:	0b38                	addi	a4,sp,408
 32a:	0000                	unimp
 32c:	2e10                	fld	fa2,24(a2)
 32e:	3f01                	addiw	t5,t5,-32
 330:	0319                	addi	t1,t1,6
 332:	3a0e                	fld	fs4,224(sp)
 334:	390b3b0b          	.4byte	0x390b3b0b
 338:	4919270b          	.4byte	0x4919270b
 33c:	01193c13          	sltiu	s8,s2,17
 340:	11000013          	li	zero,272
 344:	012e                	slli	sp,sp,0xb
 346:	0e03193f 3b01213a 	.8byte	0x3b01213a0e03193f
 34e:	110b390b          	.4byte	0x110b390b
 352:	1201                	addi	tp,tp,-32 # ffffffffffffffe0 <__global_pointer$+0xffffffff7fffe378>
 354:	7a184007          	.4byte	0x7a184007
 358:	0119                	addi	sp,sp,6
 35a:	12000013          	li	zero,288
 35e:	0035                	c.nop	13
 360:	1349                	addi	t1,t1,-14
 362:	0000                	unimp
 364:	49002613          	slti	a2,zero,1168
 368:	14000013          	li	zero,320
 36c:	0021                	c.nop	8
 36e:	1349                	addi	t1,t1,-14
 370:	0000052f          	.4byte	0x52f
 374:	2115                	addiw	sp,sp,5
 376:	4900                	lw	s0,16(a0)
 378:	000b2f13          	slti	t5,s6,0
 37c:	1600                	addi	s0,sp,800
 37e:	0034                	addi	a3,sp,8
 380:	213a0803          	lb	a6,531(s4)
 384:	3b01                	addiw	s6,s6,-32
 386:	0821390b          	.4byte	0x821390b
 38a:	1349                	addi	t1,t1,-14
 38c:	1802                	slli	a6,a6,0x20
 38e:	0000                	unimp
 390:	7d014817          	auipc	a6,0x7d014
 394:	7f01                	lui	t5,0xfffe0
 396:	18000013          	li	zero,384
 39a:	012e                	slli	sp,sp,0xb
 39c:	0e03193f 3b01213a 	.8byte	0x3b01213a0e03193f
 3a4:	0621390b          	.4byte	0x621390b
 3a8:	01111927          	.4byte	0x1111927
 3ac:	0712                	slli	a4,a4,0x4
 3ae:	1840                	addi	s0,sp,52
 3b0:	197a                	slli	s2,s2,0x3e
 3b2:	1301                	addi	t1,t1,-32
 3b4:	0000                	unimp
 3b6:	1119                	addi	sp,sp,-26
 3b8:	2501                	sext.w	a0,a0
 3ba:	130e                	slli	t1,t1,0x23
 3bc:	1b1f030b          	.4byte	0x1b1f030b
 3c0:	111f 1201 1007      	.byte	0x1f, 0x11, 0x01, 0x12, 0x07, 0x10
 3c6:	1a000017          	auipc	zero,0x1a000
 3ca:	0024                	addi	s1,sp,8
 3cc:	0b3e0b0b          	.4byte	0xb3e0b0b
 3d0:	00000803          	lb	a6,0(zero) # 0 <_start-0x80000000>
 3d4:	3e01041b          	addiw	s0,sp,992
 3d8:	490b0b0b          	.4byte	0x490b0b0b
 3dc:	3b0b3a13          	sltiu	s4,s6,944
 3e0:	010b390b          	.4byte	0x10b390b
 3e4:	1c000013          	li	zero,448
 3e8:	0028                	addi	a0,sp,8
 3ea:	0b1c0803          	lb	a6,177(s8)
 3ee:	0000                	unimp
 3f0:	131d                	addi	t1,t1,-25
 3f2:	0b01                	addi	s6,s6,0
 3f4:	3a05                	addiw	s4,s4,-31
 3f6:	390b3b0b          	.4byte	0x390b3b0b
 3fa:	0013010b          	.4byte	0x13010b
 3fe:	1e00                	addi	s0,sp,816
 400:	0b0b0113          	addi	sp,s6,176
 404:	0b3a                	slli	s6,s6,0xe
 406:	0b390b3b          	.4byte	0xb390b3b
 40a:	1301                	addi	t1,t1,-32
 40c:	0000                	unimp
 40e:	0b1f 5501 0017      	.byte	0x1f, 0x0b, 0x01, 0x55, 0x17, 0x00
 414:	2000                	fld	fs0,0(s0)
 416:	0034                	addi	a3,sp,8
 418:	0b3a0803          	lb	a6,179(s4)
 41c:	0b390b3b          	.4byte	0xb390b3b
 420:	1349                	addi	t1,t1,-14
 422:	0000                	unimp
 424:	4821                	li	a6,8
 426:	7d01                	lui	s10,0xfffe0
 428:	8201                	c.srli64	a2
 42a:	1901                	addi	s2,s2,-32
 42c:	137f                	.2byte	0x137f
 42e:	0000                	unimp
 430:	3422                	fld	fs0,40(sp)
 432:	0300                	addi	s0,sp,384
 434:	3a0e                	fld	fs4,224(sp)
 436:	390b3b0b          	.4byte	0x390b3b0b
 43a:	0013490b          	.4byte	0x13490b
 43e:	2300                	fld	fs0,0(a4)
 440:	002e                	c.slli	zero,0xb
 442:	0e03193f 0b3b0b3a 	.8byte	0xb3b0b3a0e03193f
 44a:	0b39                	addi	s6,s6,14
 44c:	0b20                	addi	s0,sp,408
 44e:	0000                	unimp
 450:	4824                	lw	s1,80(s0)
 452:	7d00                	ld	s0,56(a0)
 454:	8201                	c.srli64	a2
 456:	1901                	addi	s2,s2,-32
 458:	137f                	.2byte	0x137f
 45a:	0000                	unimp
 45c:	2e25                	addiw	t3,t3,9 # 6009 <_start-0x7fff9ff7>
 45e:	3100                	fld	fs0,32(a0)
 460:	12011113          	.4byte	0x12011113
 464:	7a184007          	.4byte	0x7a184007
 468:	0019                	c.nop	6
 46a:	0000                	unimp
 46c:	2401                	sext.w	s0,s0
 46e:	0b00                	addi	s0,sp,400
 470:	030b3e0b          	.4byte	0x30b3e0b
 474:	000e                	c.slli	zero,0x3
 476:	0200                	addi	s0,sp,256
 478:	0016                	c.slli	zero,0x5
 47a:	0b3a0e03          	lb	t3,179(s4)
 47e:	0b390b3b          	.4byte	0xb390b3b
 482:	1349                	addi	t1,t1,-14
 484:	0000                	unimp
 486:	7d004803          	lbu	a6,2000(zero) # 7d0 <_start-0x7ffff830>
 48a:	7f01                	lui	t5,0xfffe0
 48c:	04000013          	li	zero,64
 490:	0111                	addi	sp,sp,4
 492:	0e25                	addi	t3,t3,9
 494:	1f030b13          	addi	s6,t1,496
 498:	01111f1b          	slliw	t5,sp,0x11
 49c:	0712                	slli	a4,a4,0x4
 49e:	1710                	addi	a2,sp,928
 4a0:	0000                	unimp
 4a2:	2405                	addiw	s0,s0,1
 4a4:	0b00                	addi	s0,sp,400
 4a6:	030b3e0b          	.4byte	0x30b3e0b
 4aa:	0008                	.2byte	0x8
 4ac:	0600                	addi	s0,sp,768
 4ae:	012e                	slli	sp,sp,0xb
 4b0:	0e03193f 0b3b0b3a 	.8byte	0xb3b0b3a0e03193f
 4b8:	0b39                	addi	s6,s6,14
 4ba:	1349                	addi	t1,t1,-14
 4bc:	193c                	addi	a5,sp,184
 4be:	1301                	addi	t1,t1,-32
 4c0:	0000                	unimp
 4c2:	00001807          	.4byte	0x1807
 4c6:	0800                	addi	s0,sp,16
 4c8:	012e                	slli	sp,sp,0xb
 4ca:	0e03193f 0b3b0b3a 	.8byte	0xb3b0b3a0e03193f
 4d2:	0b39                	addi	s6,s6,14
 4d4:	01111927          	.4byte	0x1111927
 4d8:	0712                	slli	a4,a4,0x4
 4da:	1840                	addi	s0,sp,52
 4dc:	197a                	slli	s2,s2,0x3e
 4de:	1301                	addi	t1,t1,-32
 4e0:	0000                	unimp
 4e2:	0509                	addi	a0,a0,2
 4e4:	0300                	addi	s0,sp,384
 4e6:	3a0e                	fld	fs4,224(sp)
 4e8:	390b3b0b          	.4byte	0x390b3b0b
 4ec:	0213490b          	.4byte	0x213490b
 4f0:	0a000017          	auipc	zero,0xa000
 4f4:	0034                	addi	a3,sp,8
 4f6:	0b3a0e03          	lb	t3,179(s4)
 4fa:	0b390b3b          	.4byte	0xb390b3b
 4fe:	1349                	addi	t1,t1,-14
 500:	1702                	slli	a4,a4,0x20
 502:	0000                	unimp
 504:	31011d0b          	.4byte	0x31011d0b
 508:	55015213          	.4byte	0x55015213
 50c:	590b5817          	auipc	a6,0x590b5
 510:	010b570b          	.4byte	0x10b570b
 514:	0c000013          	li	zero,192
 518:	011d                	addi	sp,sp,7
 51a:	1331                	addi	t1,t1,-20
 51c:	0111                	addi	sp,sp,4
 51e:	0712                	slli	a4,a4,0x4
 520:	0b58                	addi	a4,sp,404
 522:	0b59                	addi	s6,s6,22
 524:	00000b57          	.4byte	0xb57
 528:	2e0d                	addiw	t3,t3,3
 52a:	3f00                	fld	fs0,56(a4)
 52c:	0319                	addi	t1,t1,6
 52e:	3a0e                	fld	fs4,224(sp)
 530:	390b3b0b          	.4byte	0x390b3b0b
 534:	2013490b          	.4byte	0x2013490b
 538:	0e00000b          	.4byte	0xe00000b
 53c:	002e                	c.slli	zero,0xb
 53e:	0e03193f 0b3b0b3a 	.8byte	0xb3b0b3a0e03193f
 546:	0b39                	addi	s6,s6,14
 548:	0111                	addi	sp,sp,4
 54a:	0712                	slli	a4,a4,0x4
 54c:	1840                	addi	s0,sp,52
 54e:	197a                	slli	s2,s2,0x3e
 550:	0000                	unimp
 552:	31012e0f          	.4byte	0x31012e0f
 556:	12011113          	.4byte	0x12011113
 55a:	7a184007          	.4byte	0x7a184007
 55e:	0019                	c.nop	6
 560:	1000                	addi	s0,sp,32
 562:	0048                	addi	a0,sp,4
 564:	017d                	addi	sp,sp,31
 566:	0182                	c.slli64	gp
 568:	7f19                	lui	t5,0xfffe6
 56a:	00000013          	nop
 56e:	2801                	sext.w	a6,a6
 570:	0300                	addi	s0,sp,384
 572:	1c0e                	slli	s8,s8,0x23
 574:	0200000b          	.4byte	0x200000b
 578:	0024                	addi	s1,sp,8
 57a:	0b3e0b0b          	.4byte	0xb3e0b0b
 57e:	00000e03          	lb	t3,0(zero) # 0 <_start-0x80000000>
 582:	03001603          	lh	a2,48(zero) # 30 <_start-0x7fffffd0>
 586:	3a0e                	fld	fs4,224(sp)
 588:	390b3b0b          	.4byte	0x390b3b0b
 58c:	0013490b          	.4byte	0x13490b
 590:	0400                	addi	s0,sp,512
 592:	0111                	addi	sp,sp,4
 594:	0e25                	addi	t3,t3,9
 596:	1f030b13          	addi	s6,t1,496
 59a:	01111f1b          	slliw	t5,sp,0x11
 59e:	0712                	slli	a4,a4,0x4
 5a0:	1710                	addi	a2,sp,928
 5a2:	0000                	unimp
 5a4:	2405                	addiw	s0,s0,1
 5a6:	0b00                	addi	s0,sp,400
 5a8:	030b3e0b          	.4byte	0x30b3e0b
 5ac:	0008                	.2byte	0x8
 5ae:	0600                	addi	s0,sp,768
 5b0:	0104                	addi	s1,sp,128
 5b2:	0b3e                	slli	s6,s6,0xf
 5b4:	13490b0b          	.4byte	0x13490b0b
 5b8:	0b3a                	slli	s6,s6,0xe
 5ba:	0b390b3b          	.4byte	0xb390b3b
 5be:	1301                	addi	t1,t1,-32
 5c0:	0000                	unimp
 5c2:	3f012e07          	flw	ft8,1008(sp)
 5c6:	0319                	addi	t1,t1,6
 5c8:	3a0e                	fld	fs4,224(sp)
 5ca:	390b3b0b          	.4byte	0x390b3b0b
 5ce:	1119270b          	.4byte	0x1119270b
 5d2:	1201                	addi	tp,tp,-32 # ffffffffffffffe0 <__global_pointer$+0xffffffff7fffe378>
 5d4:	7a184007          	.4byte	0x7a184007
 5d8:	0119                	addi	sp,sp,6
 5da:	08000013          	li	zero,128
 5de:	0005                	c.nop	1
 5e0:	0b3a0e03          	lb	t3,179(s4)
 5e4:	0b390b3b          	.4byte	0xb390b3b
 5e8:	1349                	addi	t1,t1,-14
 5ea:	1802                	slli	a6,a6,0x20
 5ec:	0000                	unimp
 5ee:	3409                	addiw	s0,s0,-30
 5f0:	0300                	addi	s0,sp,384
 5f2:	3a0e                	fld	fs4,224(sp)
 5f4:	390b3b0b          	.4byte	0x390b3b0b
 5f8:	0213490b          	.4byte	0x213490b
 5fc:	0018                	.2byte	0x18
 5fe:	0a00                	addi	s0,sp,272
 600:	012e                	slli	sp,sp,0xb
 602:	0e03193f 0b3b0b3a 	.8byte	0xb3b0b3a0e03193f
 60a:	0b39                	addi	s6,s6,14
 60c:	0111                	addi	sp,sp,4
 60e:	0712                	slli	a4,a4,0x4
 610:	1840                	addi	s0,sp,52
 612:	197a                	slli	s2,s2,0x3e
 614:	0000                	unimp
 616:	0300340b          	.4byte	0x300340b
 61a:	3a0e                	fld	fs4,224(sp)
 61c:	390b3b0b          	.4byte	0x390b3b0b
 620:	1c13490b          	.4byte	0x1c13490b
 624:	0000000b          	.4byte	0xb
 628:	2401                	sext.w	s0,s0
 62a:	0b00                	addi	s0,sp,400
 62c:	030b3e0b          	.4byte	0x30b3e0b
 630:	000e                	c.slli	zero,0x3
 632:	0200                	addi	s0,sp,256
 634:	0016                	c.slli	zero,0x5
 636:	0b3a0e03          	lb	t3,179(s4)
 63a:	0b390b3b          	.4byte	0xb390b3b
 63e:	1349                	addi	t1,t1,-14
 640:	0000                	unimp
 642:	03000d03          	lb	s10,48(zero) # 30 <_start-0x7fffffd0>
 646:	3a0e                	fld	fs4,224(sp)
 648:	0421                	addi	s0,s0,8
 64a:	0b390b3b          	.4byte	0xb390b3b
 64e:	1349                	addi	t1,t1,-14
 650:	0538                	addi	a4,sp,648
 652:	0000                	unimp
 654:	3504                	fld	fs1,40(a0)
 656:	4900                	lw	s0,16(a0)
 658:	05000013          	li	zero,80
 65c:	000d                	c.nop	3
 65e:	213a0e03          	lb	t3,531(s4)
 662:	3b04                	fld	fs1,48(a4)
 664:	490b390b          	.4byte	0x490b390b
 668:	000b3813          	sltiu	a6,s6,0
 66c:	0600                	addi	s0,sp,768
 66e:	0101                	addi	sp,sp,0
 670:	1349                	addi	t1,t1,-14
 672:	1301                	addi	t1,t1,-32
 674:	0000                	unimp
 676:	49002107          	flw	ft2,1168(zero) # 490 <_start-0x7ffffb70>
 67a:	00052f13          	slti	t5,a0,0
 67e:	0800                	addi	s0,sp,16
 680:	0034                	addi	a3,sp,8
 682:	213a0e03          	lb	t3,531(s4)
 686:	3b01                	addiw	s6,s6,-32
 688:	0c21390b          	.4byte	0xc21390b
 68c:	1349                	addi	t1,t1,-14
 68e:	1802                	slli	a6,a6,0x20
 690:	0000                	unimp
 692:	1109                	addi	sp,sp,-30
 694:	2501                	sext.w	a0,a0
 696:	130e                	slli	t1,t1,0x23
 698:	1b1f030b          	.4byte	0x1b1f030b
 69c:	111f 1201 1007      	.byte	0x1f, 0x11, 0x01, 0x12, 0x07, 0x10
 6a2:	0a000017          	auipc	zero,0xa000
 6a6:	0024                	addi	s1,sp,8
 6a8:	0b3e0b0b          	.4byte	0xb3e0b0b
 6ac:	00000803          	lb	a6,0(zero) # 0 <_start-0x80000000>
 6b0:	0b01130b          	.4byte	0xb01130b
 6b4:	3a05                	addiw	s4,s4,-31
 6b6:	390b3b0b          	.4byte	0x390b3b0b
 6ba:	0013010b          	.4byte	0x13010b
 6be:	0c00                	addi	s0,sp,528
 6c0:	012e                	slli	sp,sp,0xb
 6c2:	0e03193f 0b3b0b3a 	.8byte	0xb3b0b3a0e03193f
 6ca:	0b39                	addi	s6,s6,14
 6cc:	01111927          	.4byte	0x1111927
 6d0:	0712                	slli	a4,a4,0x4
 6d2:	1840                	addi	s0,sp,52
 6d4:	197a                	slli	s2,s2,0x3e
 6d6:	1301                	addi	t1,t1,-32
 6d8:	0000                	unimp
 6da:	050d                	addi	a0,a0,3
 6dc:	0300                	addi	s0,sp,384
 6de:	3a0e                	fld	fs4,224(sp)
 6e0:	390b3b0b          	.4byte	0x390b3b0b
 6e4:	0213490b          	.4byte	0x213490b
 6e8:	0e000017          	auipc	zero,0xe000
 6ec:	012e                	slli	sp,sp,0xb
 6ee:	0e03193f 0b3b0b3a 	.8byte	0xb3b0b3a0e03193f
 6f6:	0b39                	addi	s6,s6,14
 6f8:	1349                	addi	t1,t1,-14
 6fa:	0111                	addi	sp,sp,4
 6fc:	0712                	slli	a4,a4,0x4
 6fe:	1840                	addi	s0,sp,52
 700:	197a                	slli	s2,s2,0x3e
 702:	1301                	addi	t1,t1,-32
 704:	0000                	unimp
 706:	3f012e0f          	.4byte	0x3f012e0f
 70a:	0319                	addi	t1,t1,6
 70c:	3a0e                	fld	fs4,224(sp)
 70e:	390b3b0b          	.4byte	0x390b3b0b
 712:	1119270b          	.4byte	0x1119270b
 716:	1201                	addi	tp,tp,-32 # ffffffffffffffe0 <__global_pointer$+0xffffffff7fffe378>
 718:	7a184007          	.4byte	0x7a184007
 71c:	0019                	c.nop	6
 71e:	1000                	addi	s0,sp,32
 720:	0005                	c.nop	1
 722:	0b3a0e03          	lb	t3,179(s4)
 726:	0b390b3b          	.4byte	0xb390b3b
 72a:	1349                	addi	t1,t1,-14
 72c:	1802                	slli	a6,a6,0x20
 72e:	0000                	unimp
 730:	0100                	addi	s0,sp,128
 732:	000d                	c.nop	3
 734:	213a0e03          	lb	t3,531(s4)
 738:	3b04                	fld	fs1,48(a4)
 73a:	1121390b          	.4byte	0x1121390b
 73e:	1349                	addi	t1,t1,-14
 740:	0b38                	addi	a4,sp,408
 742:	0000                	unimp
 744:	2402                	fld	fs0,0(sp)
 746:	0b00                	addi	s0,sp,400
 748:	030b3e0b          	.4byte	0x30b3e0b
 74c:	000e                	c.slli	zero,0x3
 74e:	0300                	addi	s0,sp,384
 750:	0016                	c.slli	zero,0x5
 752:	0b3a0e03          	lb	t3,179(s4)
 756:	0b390b3b          	.4byte	0xb390b3b
 75a:	1349                	addi	t1,t1,-14
 75c:	0000                	unimp
 75e:	0504                	addi	s1,sp,640
 760:	0300                	addi	s0,sp,384
 762:	3a0e                	fld	fs4,224(sp)
 764:	0121                	addi	sp,sp,8
 766:	0b390b3b          	.4byte	0xb390b3b
 76a:	1349                	addi	t1,t1,-14
 76c:	1802                	slli	a6,a6,0x20
 76e:	0000                	unimp
 770:	0d05                	addi	s10,s10,1 # fffffffffffe0001 <__global_pointer$+0xffffffff7ffde399>
 772:	0300                	addi	s0,sp,384
 774:	3a08                	fld	fa0,48(a2)
 776:	0421                	addi	s0,s0,8
 778:	21390b3b          	.4byte	0x21390b3b
 77c:	4911                	li	s2,4
 77e:	000b3813          	sltiu	a6,s6,0
 782:	0600                	addi	s0,sp,768
 784:	0005                	c.nop	1
 786:	213a0803          	lb	a6,531(s4)
 78a:	3b01                	addiw	s6,s6,-32
 78c:	490b390b          	.4byte	0x490b390b
 790:	00180213          	addi	tp,a6,1 # 590b550d <_start-0x26f4aaf3>
 794:	0700                	addi	s0,sp,896
 796:	0111                	addi	sp,sp,4
 798:	0e25                	addi	t3,t3,9
 79a:	1f030b13          	addi	s6,t1,496
 79e:	01111f1b          	slliw	t5,sp,0x11
 7a2:	0712                	slli	a4,a4,0x4
 7a4:	1710                	addi	a2,sp,928
 7a6:	0000                	unimp
 7a8:	2408                	fld	fa0,8(s0)
 7aa:	0b00                	addi	s0,sp,400
 7ac:	030b3e0b          	.4byte	0x30b3e0b
 7b0:	0008                	.2byte	0x8
 7b2:	0900                	addi	s0,sp,144
 7b4:	0035                	c.nop	13
 7b6:	1349                	addi	t1,t1,-14
 7b8:	0000                	unimp
 7ba:	260a                	fld	fa2,128(sp)
 7bc:	4900                	lw	s0,16(a0)
 7be:	0b000013          	li	zero,176
 7c2:	0b0b0113          	addi	sp,s6,176
 7c6:	0b3a                	slli	s6,s6,0xe
 7c8:	0b390b3b          	.4byte	0xb390b3b
 7cc:	1301                	addi	t1,t1,-32
 7ce:	0000                	unimp
 7d0:	040c                	addi	a1,sp,512
 7d2:	3e01                	addiw	t3,t3,-32
 7d4:	490b0b0b          	.4byte	0x490b0b0b
 7d8:	3b0b3a13          	sltiu	s4,s6,944
 7dc:	010b390b          	.4byte	0x10b390b
 7e0:	0d000013          	li	zero,208
 7e4:	0028                	addi	a0,sp,8
 7e6:	0b1c0e03          	lb	t3,177(s8)
 7ea:	0000                	unimp
 7ec:	2e0e                	fld	ft8,192(sp)
 7ee:	3f01                	addiw	t5,t5,-32 # fffffffffffe5fe0 <__global_pointer$+0xffffffff7ffe4378>
 7f0:	0319                	addi	t1,t1,6
 7f2:	3a0e                	fld	fs4,224(sp)
 7f4:	390b3b0b          	.4byte	0x390b3b0b
 7f8:	1119270b          	.4byte	0x1119270b
 7fc:	1201                	addi	tp,tp,-32 # ffffffffffffffe0 <__global_pointer$+0xffffffff7fffe378>
 7fe:	7a184007          	.4byte	0x7a184007
 802:	0119                	addi	sp,sp,6
 804:	0f000013          	li	zero,240
 808:	0005                	c.nop	1
 80a:	0b3a0803          	lb	a6,179(s4)
 80e:	0b390b3b          	.4byte	0xb390b3b
 812:	1349                	addi	t1,t1,-14
 814:	1702                	slli	a4,a4,0x20
 816:	0000                	unimp
 818:	0f10                	addi	a2,sp,912
 81a:	0b00                	addi	s0,sp,400
 81c:	0013490b          	.4byte	0x13490b
 820:	1100                	addi	s0,sp,160
 822:	012e                	slli	sp,sp,0xb
 824:	0e03193f 0b3b0b3a 	.8byte	0xb3b0b3a0e03193f
 82c:	0b39                	addi	s6,s6,14
 82e:	13491927          	.4byte	0x13491927
 832:	0111                	addi	sp,sp,4
 834:	0712                	slli	a4,a4,0x4
 836:	1840                	addi	s0,sp,52
 838:	197a                	slli	s2,s2,0x3e
 83a:	1301                	addi	t1,t1,-32
 83c:	0000                	unimp
 83e:	0512                	slli	a0,a0,0x4
 840:	0300                	addi	s0,sp,384
 842:	3a0e                	fld	fs4,224(sp)
 844:	390b3b0b          	.4byte	0x390b3b0b
 848:	0213490b          	.4byte	0x213490b
 84c:	13000017          	auipc	zero,0x13000
 850:	012e                	slli	sp,sp,0xb
 852:	0e03193f 0b3b0b3a 	.8byte	0xb3b0b3a0e03193f
 85a:	0b39                	addi	s6,s6,14
 85c:	01111927          	.4byte	0x1111927
 860:	0712                	slli	a4,a4,0x4
 862:	1840                	addi	s0,sp,52
 864:	197a                	slli	s2,s2,0x3e
 866:	0000                	unimp
 868:	0100                	addi	s0,sp,128
 86a:	0024                	addi	s1,sp,8
 86c:	0b3e0b0b          	.4byte	0xb3e0b0b
 870:	00000e03          	lb	t3,0(zero) # 0 <_start-0x80000000>
 874:	1102                	slli	sp,sp,0x20
 876:	2501                	sext.w	a0,a0
 878:	130e                	slli	t1,t1,0x23
 87a:	1b1f030b          	.4byte	0x1b1f030b
 87e:	101f 0017 0300      	.byte	0x1f, 0x10, 0x17, 0x00, 0x00, 0x03
 884:	0024                	addi	s1,sp,8
 886:	0b3e0b0b          	.4byte	0xb3e0b0b
 88a:	00000803          	lb	a6,0(zero) # 0 <_start-0x80000000>
 88e:	0100                	addi	s0,sp,128
 890:	0024                	addi	s1,sp,8
 892:	0b3e0b0b          	.4byte	0xb3e0b0b
 896:	00000e03          	lb	t3,0(zero) # 0 <_start-0x80000000>
 89a:	1102                	slli	sp,sp,0x20
 89c:	2501                	sext.w	a0,a0
 89e:	130e                	slli	t1,t1,0x23
 8a0:	1b1f030b          	.4byte	0x1b1f030b
 8a4:	111f 1201 1007      	.byte	0x1f, 0x11, 0x01, 0x12, 0x07, 0x10
 8aa:	03000017          	auipc	zero,0x3000
 8ae:	0024                	addi	s1,sp,8
 8b0:	0b3e0b0b          	.4byte	0xb3e0b0b
 8b4:	00000803          	lb	a6,0(zero) # 0 <_start-0x80000000>
 8b8:	2e04                	fld	fs1,24(a2)
 8ba:	3f00                	fld	fs0,56(a4)
 8bc:	0319                	addi	t1,t1,6
 8be:	3a0e                	fld	fs4,224(sp)
 8c0:	390b3b0b          	.4byte	0x390b3b0b
 8c4:	1201110b          	.4byte	0x1201110b
 8c8:	7a184007          	.4byte	0x7a184007
 8cc:	0019                	c.nop	6
 8ce:	0000                	unimp
 8d0:	1601                	addi	a2,a2,-32
 8d2:	0300                	addi	s0,sp,384
 8d4:	3a0e                	fld	fs4,224(sp)
 8d6:	390b3b0b          	.4byte	0x390b3b0b
 8da:	0013490b          	.4byte	0x13490b
 8de:	0200                	addi	s0,sp,256
 8e0:	0024                	addi	s1,sp,8
 8e2:	0b3e0b0b          	.4byte	0xb3e0b0b
 8e6:	00000e03          	lb	t3,0(zero) # 0 <_start-0x80000000>
 8ea:	03000503          	lb	a0,48(zero) # 30 <_start-0x7fffffd0>
 8ee:	3a0e                	fld	fs4,224(sp)
 8f0:	0121                	addi	sp,sp,8
 8f2:	0b390b3b          	.4byte	0xb390b3b
 8f6:	1349                	addi	t1,t1,-14
 8f8:	1702                	slli	a4,a4,0x20
 8fa:	0000                	unimp
 8fc:	0d04                	addi	s1,sp,656
 8fe:	0300                	addi	s0,sp,384
 900:	3a0e                	fld	fs4,224(sp)
 902:	390b3b0b          	.4byte	0x390b3b0b
 906:	3813490b          	.4byte	0x3813490b
 90a:	0500000b          	.4byte	0x500000b
 90e:	0005                	c.nop	1
 910:	213a0e03          	lb	t3,531(s4)
 914:	3b01                	addiw	s6,s6,-32
 916:	490b390b          	.4byte	0x490b390b
 91a:	00180213          	addi	tp,a6,1
 91e:	0600                	addi	s0,sp,768
 920:	0028                	addi	a0,sp,8
 922:	0b1c0e03          	lb	t3,177(s8)
 926:	0000                	unimp
 928:	03000d07          	.4byte	0x3000d07
 92c:	3a08                	fld	fa0,48(a2)
 92e:	0521                	addi	a0,a0,8
 930:	21390b3b          	.4byte	0x21390b3b
 934:	4911                	li	s2,4
 936:	000b3813          	sltiu	a6,s6,0
 93a:	0800                	addi	s0,sp,16
 93c:	210b000f          	.4byte	0x210b000f
 940:	4908                	lw	a0,16(a0)
 942:	09000013          	li	zero,144
 946:	0b0b0113          	addi	sp,s6,176
 94a:	0b3a                	slli	s6,s6,0xe
 94c:	21390b3b          	.4byte	0x21390b3b
 950:	0109                	addi	sp,sp,2
 952:	0a000013          	li	zero,160
 956:	012e                	slli	sp,sp,0xb
 958:	0e03193f 3b01213a 	.8byte	0x3b01213a0e03193f
 960:	0821390b          	.4byte	0x821390b
 964:	13491927          	.4byte	0x13491927
 968:	0111                	addi	sp,sp,4
 96a:	0712                	slli	a4,a4,0x4
 96c:	1840                	addi	s0,sp,52
 96e:	197a                	slli	s2,s2,0x3e
 970:	1301                	addi	t1,t1,-32
 972:	0000                	unimp
 974:	31011d0b          	.4byte	0x31011d0b
 978:	12011113          	.4byte	0x12011113
 97c:	01215807          	.4byte	0x1215807
 980:	0b59                	addi	s6,s6,22
 982:	00000b57          	.4byte	0xb57
 986:	050c                	addi	a1,sp,640
 988:	3100                	fld	fs0,32(a0)
 98a:	0d000013          	li	zero,208
 98e:	012e                	slli	sp,sp,0xb
 990:	0e03193f 3b01213a 	.8byte	0x3b01213a0e03193f
 998:	0921390b          	.4byte	0x921390b
 99c:	13491927          	.4byte	0x13491927
 9a0:	2120                	fld	fs0,64(a0)
 9a2:	0101                	addi	sp,sp,0
 9a4:	0e000013          	li	zero,224
 9a8:	0005                	c.nop	1
 9aa:	213a0e03          	lb	t3,531(s4)
 9ae:	3b01                	addiw	s6,s6,-32
 9b0:	2f21390b          	.4byte	0x2f21390b
 9b4:	1349                	addi	t1,t1,-14
 9b6:	0000                	unimp
 9b8:	3100050f          	.4byte	0x3100050f
 9bc:	00170213          	addi	tp,a4,1
 9c0:	1000                	addi	s0,sp,32
 9c2:	0111                	addi	sp,sp,4
 9c4:	0e25                	addi	t3,t3,9
 9c6:	1f030b13          	addi	s6,t1,496
 9ca:	01111f1b          	slliw	t5,sp,0x11
 9ce:	0712                	slli	a4,a4,0x4
 9d0:	1710                	addi	a2,sp,928
 9d2:	0000                	unimp
 9d4:	2411                	addiw	s0,s0,4
 9d6:	0b00                	addi	s0,sp,400
 9d8:	030b3e0b          	.4byte	0x30b3e0b
 9dc:	0008                	.2byte	0x8
 9de:	1200                	addi	s0,sp,288
 9e0:	0035                	c.nop	13
 9e2:	1349                	addi	t1,t1,-14
 9e4:	0000                	unimp
 9e6:	49002613          	slti	a2,zero,1168
 9ea:	14000013          	li	zero,320
 9ee:	0104                	addi	s1,sp,128
 9f0:	0b3e                	slli	s6,s6,0xf
 9f2:	13490b0b          	.4byte	0x13490b0b
 9f6:	0b3a                	slli	s6,s6,0xe
 9f8:	0b390b3b          	.4byte	0xb390b3b
 9fc:	1301                	addi	t1,t1,-32
 9fe:	0000                	unimp
 a00:	2815                	addiw	a6,a6,5
 a02:	0300                	addi	s0,sp,384
 a04:	1c08                	addi	a0,sp,560
 a06:	1600000b          	.4byte	0x1600000b
 a0a:	012e                	slli	sp,sp,0xb
 a0c:	0e03193f 0b3b0b3a 	.8byte	0xb3b0b3a0e03193f
 a14:	0b39                	addi	s6,s6,14
 a16:	01111927          	.4byte	0x1111927
 a1a:	0712                	slli	a4,a4,0x4
 a1c:	1840                	addi	s0,sp,52
 a1e:	197a                	slli	s2,s2,0x3e
 a20:	1301                	addi	t1,t1,-32
 a22:	0000                	unimp
 a24:	31012e17          	auipc	t3,0x31012
 a28:	12011113          	.4byte	0x12011113
 a2c:	7a184007          	.4byte	0x7a184007
 a30:	0119                	addi	sp,sp,6
 a32:	18000013          	li	zero,384
 a36:	012e                	slli	sp,sp,0xb
 a38:	1331                	addi	t1,t1,-20
 a3a:	0111                	addi	sp,sp,4
 a3c:	0712                	slli	a4,a4,0x4
 a3e:	1840                	addi	s0,sp,52
 a40:	197a                	slli	s2,s2,0x3e
 a42:	0000                	unimp
	...

Disassembly of section .debug_aranges:

0000000000000000 <.debug_aranges>:
   0:	003c                	addi	a5,sp,8
   2:	0000                	unimp
   4:	0002                	c.slli64	zero
   6:	0000                	unimp
   8:	0000                	unimp
   a:	0008                	.2byte	0x8
   c:	0000                	unimp
   e:	0000                	unimp
  10:	0352                	slli	t1,t1,0x14
  12:	8000                	.2byte	0x8000
  14:	0000                	unimp
  16:	0000                	unimp
  18:	0088                	addi	a0,sp,64
	...
  22:	8000                	.2byte	0x8000
  24:	0000                	unimp
  26:	0000                	unimp
  28:	0090                	addi	a2,sp,64
	...
  3e:	0000                	unimp
  40:	003c                	addi	a5,sp,8
  42:	0000                	unimp
  44:	0002                	c.slli64	zero
  46:	00000023          	sb	zero,0(zero) # 0 <_start-0x80000000>
  4a:	0008                	.2byte	0x8
  4c:	0000                	unimp
  4e:	0000                	unimp
  50:	0092                	slli	ra,ra,0x4
  52:	8000                	.2byte	0x8000
  54:	0000                	unimp
  56:	0000                	unimp
  58:	0054                	addi	a3,sp,4
  5a:	0000                	unimp
  5c:	0000                	unimp
  5e:	0000                	unimp
  60:	03da                	slli	t2,t2,0x16
  62:	8000                	.2byte	0x8000
  64:	0000                	unimp
  66:	0000                	unimp
  68:	012e                	slli	sp,sp,0xb
	...
  7e:	0000                	unimp
  80:	002c                	addi	a1,sp,8
  82:	0000                	unimp
  84:	0002                	c.slli64	zero
  86:	072d                	addi	a4,a4,11
  88:	0000                	unimp
  8a:	0008                	.2byte	0x8
  8c:	0000                	unimp
  8e:	0000                	unimp
  90:	00e6                	slli	ra,ra,0x19
  92:	8000                	.2byte	0x8000
  94:	0000                	unimp
  96:	0000                	unimp
  98:	0122                	slli	sp,sp,0x8
	...
  ae:	0000                	unimp
  b0:	002c                	addi	a1,sp,8
  b2:	0000                	unimp
  b4:	0002                	c.slli64	zero
  b6:	0d04                	addi	s1,sp,656
  b8:	0000                	unimp
  ba:	0008                	.2byte	0x8
  bc:	0000                	unimp
  be:	0000                	unimp
  c0:	0208                	addi	a0,sp,256
  c2:	8000                	.2byte	0x8000
  c4:	0000                	unimp
  c6:	0000                	unimp
  c8:	0028                	addi	a0,sp,8
	...
  de:	0000                	unimp
  e0:	002c                	addi	a1,sp,8
  e2:	0000                	unimp
  e4:	0002                	c.slli64	zero
  e6:	0e6c                	addi	a1,sp,796
  e8:	0000                	unimp
  ea:	0008                	.2byte	0x8
  ec:	0000                	unimp
  ee:	0000                	unimp
  f0:	0230                	addi	a2,sp,264
  f2:	8000                	.2byte	0x8000
  f4:	0000                	unimp
  f6:	0000                	unimp
  f8:	0014                	.2byte	0x14
	...
 10e:	0000                	unimp
 110:	002c                	addi	a1,sp,8
 112:	0000                	unimp
 114:	0002                	c.slli64	zero
 116:	0fb5                	addi	t6,t6,13
 118:	0000                	unimp
 11a:	0008                	.2byte	0x8
 11c:	0000                	unimp
 11e:	0000                	unimp
 120:	0244                	addi	s1,sp,260
 122:	8000                	.2byte	0x8000
 124:	0000                	unimp
 126:	0000                	unimp
 128:	0032                	c.slli	zero,0xc
	...
 13e:	0000                	unimp
 140:	002c                	addi	a1,sp,8
 142:	0000                	unimp
 144:	0002                	c.slli64	zero
 146:	1169                	addi	sp,sp,-6
 148:	0000                	unimp
 14a:	0008                	.2byte	0x8
 14c:	0000                	unimp
 14e:	0000                	unimp
 150:	0276                	slli	tp,tp,0x1d
 152:	8000                	.2byte	0x8000
 154:	0000                	unimp
 156:	0000                	unimp
 158:	0026                	c.slli	zero,0x9
	...
 16e:	0000                	unimp
 170:	001c                	.2byte	0x1c
 172:	0000                	unimp
 174:	0002                	c.slli64	zero
 176:	13a9                	addi	t2,t2,-22
 178:	0000                	unimp
 17a:	0008                	.2byte	0x8
	...
 190:	002c                	addi	a1,sp,8
 192:	0000                	unimp
 194:	0002                	c.slli64	zero
 196:	1400                	addi	s0,sp,544
 198:	0000                	unimp
 19a:	0008                	.2byte	0x8
 19c:	0000                	unimp
 19e:	0000                	unimp
 1a0:	029c                	addi	a5,sp,320
 1a2:	8000                	.2byte	0x8000
 1a4:	0000                	unimp
 1a6:	0000                	unimp
 1a8:	0002                	c.slli64	zero
	...
 1be:	0000                	unimp
 1c0:	002c                	addi	a1,sp,8
 1c2:	0000                	unimp
 1c4:	0002                	c.slli64	zero
 1c6:	1481                	addi	s1,s1,-32
 1c8:	0000                	unimp
 1ca:	0008                	.2byte	0x8
 1cc:	0000                	unimp
 1ce:	0000                	unimp
 1d0:	029e                	slli	t0,t0,0x7
 1d2:	8000                	.2byte	0x8000
 1d4:	0000                	unimp
 1d6:	0000                	unimp
 1d8:	0078                	addi	a4,sp,12
	...

Disassembly of section .debug_str:

0000000000000000 <.debug_str>:
   0:	65726f63          	bltu	tp,s7,65e <_start-0x7ffff9a2>
   4:	6174732f          	.4byte	0x6174732f
   8:	7472                	ld	s0,312(sp)
   a:	7075                	c.lui	zero,0xffffd
   c:	6174732f          	.4byte	0x6174732f
  10:	7472                	ld	s0,312(sp)
  12:	7075                	c.lui	zero,0xffffd
  14:	532e                	lw	t1,232(sp)
  16:	4300                	lw	s0,0(a4)
  18:	5c3a                	lw	s8,172(sp)
  1a:	7250                	ld	a2,160(a2)
  1c:	63656a6f          	jal	s4,56652 <_start-0x7ffa99ae>
  20:	7374                	ld	a3,224(a4)
  22:	525c                	lw	a5,36(a2)
  24:	7065                	c.lui	zero,0xffff9
  26:	7469736f          	jal	t1,9776c <_start-0x7ff68894>
  2a:	6569726f          	jal	tp,97680 <_start-0x7ff68980>
  2e:	63735c73          	csrrwi	s8,0x637,6
  32:	6d75                	lui	s10,0x1d
  34:	762d                	lui	a2,0xfffeb
  36:	622d                	lui	tp,0xb
  38:	6972                	ld	s2,280(sp)
  3a:	676e                	ld	a4,216(sp)
  3c:	7075                	c.lui	zero,0xffffd
  3e:	735c                	ld	a5,160(a4)
  40:	63735c77          	.4byte	0x63735c77
  44:	6d75                	lui	s10,0x1d
  46:	665f 7269 776d      	.byte	0x5f, 0x66, 0x69, 0x72, 0x6d, 0x77
  4c:	7261                	lui	tp,0xffff8
  4e:	0065                	c.nop	25
  50:	20554e47          	fmsub.s	ft8,fa0,ft5,ft4,rmm
  54:	5341                	li	t1,-16
  56:	3220                	fld	fs0,96(a2)
  58:	332e                	fld	ft6,232(sp)
  5a:	0038                	addi	a4,sp,8
  5c:	4148                	lw	a0,4(a0)
  5e:	5f4c                	lw	a1,60(a4)
  60:	4155                	li	sp,21
  62:	5452                	lw	s0,52(sp)
  64:	695f 696e 0074      	.byte	0x5f, 0x69, 0x6e, 0x69, 0x74, 0x00
  6a:	7270                	ld	a2,224(a2)
  6c:	6f69                	lui	t5,0x1a
  6e:	6972                	ld	s2,280(sp)
  70:	7974                	ld	a3,240(a0)
  72:	745f 7268 7365      	.byte	0x5f, 0x74, 0x68, 0x72, 0x65, 0x73
  78:	6f68                	ld	a0,216(a4)
  7a:	646c                	ld	a1,200(s0)
  7c:	7000                	ld	s0,32(s0)
  7e:	696c                	ld	a1,208(a0)
  80:	6f635f63          	bge	t1,s6,77e <_start-0x7ffff882>
  84:	746e                	ld	s0,248(sp)
  86:	7865                	lui	a6,0xffff9
  88:	5f74                	lw	a3,124(a4)
  8a:	746e6f63          	bltu	t3,t1,7e8 <_start-0x7ffff818>
  8e:	6f72                	ld	t5,280(sp)
  90:	006c                	addi	a1,sp,12
  92:	6f64                	ld	s1,216(a4)
  94:	656e                	ld	a0,216(sp)
  96:	735f 6174 7574      	.byte	0x5f, 0x73, 0x74, 0x61, 0x74, 0x75
  9c:	61740073          	.4byte	0x61740073
  a0:	6772                	ld	a4,280(sp)
  a2:	7465                	lui	s0,0xffff9
  a4:	7300                	ld	s0,32(a4)
  a6:	6f68                	ld	a0,216(a4)
  a8:	7472                	ld	s0,312(sp)
  aa:	6920                	ld	s0,80(a0)
  ac:	746e                	ld	s0,248(sp)
  ae:	7300                	ld	s0,32(a4)
  b0:	7a69                	lui	s4,0xffffa
  b2:	5f65                	li	t5,-7
  b4:	0074                	addi	a3,sp,12
  b6:	4148                	lw	a0,4(a0)
  b8:	5f4c                	lw	a1,60(a4)
  ba:	4155                	li	sp,21
  bc:	5452                	lw	s0,52(sp)
  be:	745f 6172 736e      	.byte	0x5f, 0x74, 0x72, 0x61, 0x6e, 0x73
  c4:	696d                	lui	s2,0x1b
  c6:	0074                	addi	a3,sp,12
  c8:	616d                	addi	sp,sp,240
  ca:	6e69                	lui	t3,0x1a
  cc:	5f00                	lw	s0,56(a4)
  ce:	755f 6e69 3374      	.byte	0x5f, 0x75, 0x69, 0x6e, 0x74, 0x33
  d4:	5f32                	lw	t5,44(sp)
  d6:	0074                	addi	a3,sp,12
  d8:	5f5f 6975 746e      	.byte	0x5f, 0x5f, 0x75, 0x69, 0x6e, 0x74
  de:	3631                	addiw	a2,a2,-20 # fffffffffffeafec <__global_pointer$+0xffffffff7ffe9384>
  e0:	745f 7000 696c      	.byte	0x5f, 0x74, 0x00, 0x70, 0x6c, 0x69
  e6:	65735f63          	bge	t1,s7,744 <_start-0x7ffff8bc>
  ea:	5f74                	lw	a3,124(a4)
  ec:	6962                	ld	s2,24(sp)
  ee:	0074                	addi	a3,sp,12
  f0:	6464                	ld	s1,200(s0)
  f2:	6e65                	lui	t3,0x19
  f4:	70006d6f          	jal	s10,67f4 <_start-0x7fff980c>
  f8:	6972                	ld	s2,280(sp)
  fa:	746e                	ld	s0,248(sp)
  fc:	665f 7363 0072      	.byte	0x5f, 0x66, 0x63, 0x73, 0x72, 0x00
 102:	6168                	ld	a0,192(a0)
 104:	7472                	ld	s0,312(sp)
 106:	695f 0064 6c66      	.byte	0x5f, 0x69, 0x64, 0x00, 0x66, 0x6c
 10c:	0074616f          	jal	sp,46912 <_start-0x7ffb96ee>
 110:	6f6c                	ld	a1,216(a4)
 112:	676e                	ld	a4,216(sp)
 114:	6c20                	ld	s0,88(s0)
 116:	20676e6f          	jal	t3,7631c <_start-0x7ff89ce4>
 11a:	6e69                	lui	t3,0x1a
 11c:	0074                	addi	a3,sp,12
 11e:	6c70                	ld	a2,216(s0)
 120:	6369                	lui	t1,0x1a
 122:	635f 6d6f 6c70      	.byte	0x5f, 0x63, 0x6f, 0x6d, 0x70, 0x6c
 128:	7465                	lui	s0,0xffff9
 12a:	5f65                	li	t5,-7
 12c:	7269                	lui	tp,0xffffa
 12e:	0071                	c.nop	28
 130:	4954                	lw	a3,20(a0)
 132:	454d                	li	a0,19
 134:	0054554f          	fnmadd.s	fa0,fs0,ft5,ft0,unknown
 138:	6162                	ld	sp,24(sp)
 13a:	70006573          	csrrsi	a0,0x700,0
 13e:	696c                	ld	a1,208(a0)
 140:	6f635f63          	bge	t1,s6,83e <_start-0x7ffff7c2>
 144:	746e                	ld	s0,248(sp)
 146:	7865                	lui	a6,0xffff9
 148:	5f74                	lw	a3,124(a4)
 14a:	746e6f63          	bltu	t3,t1,8a8 <_start-0x7ffff758>
 14e:	6f72                	ld	t5,280(sp)
 150:	5f6c                	lw	a1,124(a4)
 152:	0074                	addi	a3,sp,12
 154:	4155                	li	sp,21
 156:	5452                	lw	s0,52(sp)
 158:	695f 696e 5f74      	.byte	0x5f, 0x69, 0x6e, 0x69, 0x74, 0x5f
 15e:	666e6f63          	bltu	t3,t1,7dc <_start-0x7ffff824>
 162:	6769                	lui	a4,0x1a
 164:	5f00                	lw	s0,56(a4)
 166:	755f 6e69 3874      	.byte	0x5f, 0x75, 0x69, 0x6e, 0x74, 0x38
 16c:	745f 7000 696c      	.byte	0x5f, 0x74, 0x00, 0x70, 0x6c, 0x69
 172:	6e655f63          	bge	a0,t1,870 <_start-0x7ffff790>
 176:	6261                	lui	tp,0x18
 178:	656c                	ld	a1,200(a0)
 17a:	665f 726f 685f      	.byte	0x5f, 0x66, 0x6f, 0x72, 0x5f, 0x68
 180:	7261                	lui	tp,0xffff8
 182:	0074                	addi	a3,sp,12
 184:	5245                	li	tp,-15
 186:	4f52                	lw	t5,20(sp)
 188:	0052                	c.slli	zero,0x14
 18a:	6162                	ld	sp,24(sp)
 18c:	6475                	lui	s0,0x1d
 18e:	6172                	ld	sp,280(sp)
 190:	6574                	ld	a3,200(a0)
 192:	7000                	ld	s0,32(s0)
 194:	696c                	ld	a1,208(a0)
 196:	6c635f63          	bge	t1,t1,874 <_start-0x7ffff78c>
 19a:	6961                	lui	s2,0x18
 19c:	5f6d                	li	t5,-5
 19e:	7269                	lui	tp,0xffffa
 1a0:	0071                	c.nop	28
 1a2:	5542                	lw	a0,48(sp)
 1a4:	48005953          	.4byte	0x48005953
 1a8:	4c41                	li	s8,16
 1aa:	695f 696e 0074      	.byte	0x5f, 0x69, 0x6e, 0x69, 0x74, 0x00
 1b0:	6f6c                	ld	a1,216(a4)
 1b2:	676e                	ld	a4,216(sp)
 1b4:	6420                	ld	s0,72(s0)
 1b6:	6c62756f          	jal	a0,2787c <_start-0x7ffd8784>
 1ba:	0065                	c.nop	25
 1bc:	6e75                	lui	t3,0x1d
 1be:	6e676973          	csrrsi	s2,0x6e6,14
 1c2:	6465                	lui	s0,0x19
 1c4:	6320                	ld	s0,64(a4)
 1c6:	6168                	ld	a0,192(a0)
 1c8:	0072                	c.slli	zero,0x1c
 1ca:	20554e47          	fmsub.s	ft8,fa0,ft5,ft4,rmm
 1ce:	20313143          	fmadd.s	ft2,ft2,ft3,ft4,rup
 1d2:	3231                	addiw	tp,tp,-20 # ffffffffffff9fec <__global_pointer$+0xffffffff7fff8384>
 1d4:	312e                	fld	ft2,232(sp)
 1d6:	302e                	fld	ft0,232(sp)
 1d8:	2d20                	fld	fs0,88(a0)
 1da:	616d                	addi	sp,sp,240
 1dc:	6962                	ld	s2,24(sp)
 1de:	6c3d                	lui	s8,0xf
 1e0:	3670                	fld	fa2,232(a2)
 1e2:	6434                	ld	a3,72(s0)
 1e4:	2d20                	fld	fs0,88(a0)
 1e6:	636d                	lui	t1,0x1b
 1e8:	6f6d                	lui	t5,0x1b
 1ea:	6564                	ld	s1,200(a0)
 1ec:	3d6c                	fld	fa1,248(a0)
 1ee:	656d                	lui	a0,0x1b
 1f0:	6164                	ld	s1,192(a0)
 1f2:	796e                	ld	s2,248(sp)
 1f4:	2d20                	fld	fs0,88(a0)
 1f6:	696d                	lui	s2,0x1b
 1f8:	732d6173          	csrrsi	sp,0x732,26
 1fc:	6570                	ld	a2,200(a0)
 1fe:	30323d63          	.4byte	0x30323d63
 202:	3931                	addiw	s2,s2,-20 # 1afec <_start-0x7ffe5014>
 204:	3231                	addiw	tp,tp,-20 # ffffffffffffffec <__global_pointer$+0xffffffff7fffe384>
 206:	3331                	addiw	t1,t1,-20 # 1afec <_start-0x7ffe5014>
 208:	2d20                	fld	fs0,88(a0)
 20a:	616d                	addi	sp,sp,240
 20c:	6372                	ld	t1,280(sp)
 20e:	3d68                	fld	fa0,248(a0)
 210:	7672                	ld	a2,312(sp)
 212:	3436                	fld	fs0,360(sp)
 214:	6d69                	lui	s10,0x1a
 216:	6661                	lui	a2,0x18
 218:	6364                	ld	s1,192(a4)
 21a:	7a5f 6369 7273      	.byte	0x5f, 0x7a, 0x69, 0x63, 0x73, 0x72
 220:	2d20                	fld	fs0,88(a0)
 222:	4f2d2067          	.4byte	0x4f2d2067
 226:	732d2073          	csrs	0x732,s10
 22a:	6474                	ld	a3,200(s0)
 22c:	673d                	lui	a4,0xf
 22e:	756e                	ld	a0,248(sp)
 230:	3131                	addiw	sp,sp,-20
 232:	2d20                	fld	fs0,88(a0)
 234:	6e66                	ld	t3,88(sp)
 236:	6f632d6f          	jal	s10,3292c <_start-0x7ffcd6d4>
 23a:	6d6d                	lui	s10,0x1b
 23c:	2d206e6f          	jal	t3,650e <_start-0x7fff9af2>
 240:	6e66                	ld	t3,88(sp)
 242:	75622d6f          	jal	s10,22998 <_start-0x7ffdd668>
 246:	6c69                	lui	s8,0x1a
 248:	6974                	ld	a3,208(a0)
 24a:	2d6e                	fld	fs10,216(sp)
 24c:	7270                	ld	a2,224(a2)
 24e:	6e69                	lui	t3,0x1a
 250:	6674                	ld	a3,200(a2)
 252:	2d20                	fld	fs0,88(a0)
 254:	6e66                	ld	t3,88(sp)
 256:	69702d6f          	jal	s10,30ec <_start-0x7fffcf14>
 25a:	0065                	c.nop	25
 25c:	6e756f63          	bltu	a0,t2,95a <_start-0x7ffff6a6>
 260:	6574                	ld	a3,200(a0)
 262:	0072                	c.slli	zero,0x1c
 264:	69727073          	csrci	0x697,4
 268:	746e                	ld	s0,248(sp)
 26a:	0066                	c.slli	zero,0x19
 26c:	4155                	li	sp,21
 26e:	5452                	lw	s0,52(sp)
 270:	495f 696e 5474      	.byte	0x5f, 0x49, 0x6e, 0x69, 0x74, 0x54
 276:	7079                	c.lui	zero,0xffffe
 278:	4465                	li	s0,25
 27a:	6665                	lui	a2,0x19
 27c:	6400                	ld	s0,8(s0)
 27e:	756e                	ld	a0,248(sp)
 280:	006d                	c.nop	27
 282:	6f6c                	ld	a1,216(a4)
 284:	676e                	ld	a4,216(sp)
 286:	6c20                	ld	s0,88(s0)
 288:	20676e6f          	jal	t3,7648e <_start-0x7ff89b72>
 28c:	6e75                	lui	t3,0x1d
 28e:	6e676973          	csrrsi	s2,0x6e6,14
 292:	6465                	lui	s0,0x19
 294:	6920                	ld	s0,80(a0)
 296:	746e                	ld	s0,248(sp)
 298:	7000                	ld	s0,32(s0)
 29a:	696c                	ld	a1,208(a0)
 29c:	65735f63          	bge	t1,s7,8fa <_start-0x7ffff706>
 2a0:	5f74                	lw	a3,124(a4)
 2a2:	7270                	ld	a2,224(a2)
 2a4:	6f69                	lui	t5,0x1a
 2a6:	6972                	ld	s2,280(sp)
 2a8:	7974                	ld	a3,240(a0)
 2aa:	7000                	ld	s0,32(s0)
 2ac:	696c                	ld	a1,208(a0)
 2ae:	72705f63          	blez	t2,9ec <_start-0x7ffff614>
 2b2:	6f69                	lui	t5,0x1a
 2b4:	6972                	ld	s2,280(sp)
 2b6:	6974                	ld	a3,208(a0)
 2b8:	7365                	lui	t1,0xffff9
 2ba:	7300                	ld	s0,32(a4)
 2bc:	6f68                	ld	a0,216(a4)
 2be:	7472                	ld	s0,312(sp)
 2c0:	7520                	ld	s0,104(a0)
 2c2:	736e                	ld	t1,248(sp)
 2c4:	6769                	lui	a4,0x1a
 2c6:	656e                	ld	a0,216(sp)
 2c8:	2064                	fld	fs1,192(s0)
 2ca:	6e69                	lui	t3,0x1a
 2cc:	0074                	addi	a3,sp,12
 2ce:	6c727473          	csrrci	s0,0x6c7,4
 2d2:	6e65                	lui	t3,0x19
 2d4:	6200                	ld	s0,0(a2)
 2d6:	7469                	lui	s0,0xffffa
 2d8:	695f 646e 7865      	.byte	0x5f, 0x69, 0x6e, 0x64, 0x65, 0x78
 2de:	5f00                	lw	s0,56(a4)
 2e0:	755f 6e69 3674      	.byte	0x5f, 0x75, 0x69, 0x6e, 0x74, 0x36
 2e6:	5f34                	lw	a3,120(a4)
 2e8:	0074                	addi	a3,sp,12
 2ea:	4155                	li	sp,21
 2ec:	5452                	lw	s0,52(sp)
 2ee:	545f 7079 4465      	.byte	0x5f, 0x54, 0x79, 0x70, 0x65, 0x44
 2f4:	6665                	lui	a2,0x19
 2f6:	4800                	lw	s0,16(s0)
 2f8:	4c41                	li	s8,16
 2fa:	645f 6c65 7961      	.byte	0x5f, 0x64, 0x65, 0x6c, 0x61, 0x79
 300:	6900                	ld	s0,16(a0)
 302:	7172                	ld	sp,312(sp)
 304:	695f 0064 6c63      	.byte	0x5f, 0x69, 0x64, 0x00, 0x63, 0x6c
 30a:	6961                	lui	s2,0x18
 30c:	5f6d                	li	t5,-5
 30e:	706d6f63          	bltu	s10,t1,a2c <_start-0x7ffff5d4>
 312:	656c                	ld	a1,200(a0)
 314:	6574                	ld	a3,200(a0)
 316:	5f00                	lw	s0,56(a4)
 318:	695f 746e 3233      	.byte	0x5f, 0x69, 0x6e, 0x74, 0x33, 0x32
 31e:	745f 5f00 625f      	.byte	0x5f, 0x74, 0x00, 0x5f, 0x5f, 0x62
 324:	6975                	lui	s2,0x1d
 326:	746c                	ld	a1,232(s0)
 328:	6e69                	lui	t3,0x1a
 32a:	735f 7274 7063      	.byte	0x5f, 0x73, 0x74, 0x72, 0x63, 0x70
 330:	0079                	c.nop	30
 332:	74617453          	.4byte	0x74617453
 336:	7375                	lui	t1,0xffffd
 338:	7200                	ld	s0,32(a2)
 33a:	6765                	lui	a4,0x19
 33c:	695f 646e 7865      	.byte	0x5f, 0x69, 0x6e, 0x64, 0x65, 0x78
 342:	7000                	ld	s0,32(s0)
 344:	696c                	ld	a1,208(a0)
 346:	6e655f63          	bge	a0,t1,a44 <_start-0x7ffff5bc>
 34a:	6261                	lui	tp,0x18
 34c:	656c                	ld	a1,200(a0)
 34e:	58540073          	.4byte	0x58540073
 352:	4144                	lw	s1,4(a0)
 354:	4154                	lw	a3,4(a0)
 356:	5200                	lw	s0,32(a2)
 358:	4458                	lw	a4,12(s0)
 35a:	5441                	li	s0,-16
 35c:	0041                	c.nop	16
 35e:	6c70                	ld	a2,216(s0)
 360:	6369                	lui	t1,0x1a
 362:	635f 7874 635f      	.byte	0x5f, 0x63, 0x74, 0x78, 0x5f, 0x63
 368:	72746e6f          	jal	t3,4728e <_start-0x7ffb8d72>
 36c:	00736c6f          	jal	s8,36b72 <_start-0x7ffc948e>
 370:	5854                	lw	a3,52(s0)
 372:	4c525443          	.4byte	0x4c525443
 376:	5200                	lw	s0,32(a2)
 378:	4358                	lw	a4,4(a4)
 37a:	5254                	lw	a3,36(a2)
 37c:	004c                	addi	a1,sp,4
 37e:	614d                	addi	sp,sp,176
 380:	6e696863          	bltu	s2,t1,a70 <_start-0x7ffff590>
 384:	4565                	li	a0,25
 386:	7478                	ld	a4,232(s0)
 388:	7265                	lui	tp,0xffff9
 38a:	616e                	ld	sp,216(sp)
 38c:	5f6c                	lw	a1,124(a4)
 38e:	5249                	li	tp,-14
 390:	6e51                	lui	t3,0x14
 392:	485f 6e61 6c64      	.byte	0x5f, 0x48, 0x61, 0x6e, 0x64, 0x6c
 398:	7265                	lui	tp,0xffff9
 39a:	7400                	ld	s0,40(s0)
 39c:	6172                	ld	sp,280(sp)
 39e:	5f70                	lw	a2,124(a4)
 3a0:	6168                	ld	a0,192(a0)
 3a2:	646e                	ld	s0,216(sp)
 3a4:	656c                	ld	a1,200(a0)
 3a6:	0072                	c.slli	zero,0x1c
 3a8:	7369                	lui	t1,0xffffa
 3aa:	695f 746e 7265      	.byte	0x5f, 0x69, 0x6e, 0x74, 0x65, 0x72
 3b0:	7572                	ld	a0,312(sp)
 3b2:	7470                	ld	a2,232(s0)
 3b4:	6500                	ld	s0,8(a0)
 3b6:	616e                	ld	sp,216(sp)
 3b8:	6c62                	ld	s8,24(sp)
 3ba:	5f65                	li	t5,-7
 3bc:	7066                	.2byte	0x7066
 3be:	0075                	c.nop	29
 3c0:	7355                	lui	t1,0xffff5
 3c2:	7265                	lui	tp,0xffff9
 3c4:	74666f53          	.4byte	0x74666f53
 3c8:	65726177          	.4byte	0x65726177
 3cc:	495f 5152 5f6e      	.byte	0x5f, 0x49, 0x52, 0x51, 0x6e, 0x5f
 3d2:	6148                	ld	a0,128(a0)
 3d4:	646e                	ld	s0,216(sp)
 3d6:	656c                	ld	a1,200(a0)
 3d8:	0072                	c.slli	zero,0x1c
 3da:	544d                	li	s0,-13
 3dc:	4d49                	li	s10,18
 3de:	0045                	c.nop	17
 3e0:	544d                	li	s0,-13
 3e2:	4d49                	li	s10,18
 3e4:	4345                	li	t1,17
 3e6:	504d                	c.li	zero,-13
 3e8:	4800                	lw	s0,16(s0)
 3ea:	7079                	c.lui	zero,0xffffe
 3ec:	7265                	lui	tp,0xffff9
 3ee:	6976                	ld	s2,344(sp)
 3f0:	53726f73          	csrrsi	t5,0x537,4
 3f4:	7774666f          	jal	a2,4736a <_start-0x7ffb8c96>
 3f8:	7261                	lui	tp,0xffff8
 3fa:	5f65                	li	t5,-7
 3fc:	5249                	li	tp,-14
 3fe:	6e51                	lui	t3,0x14
 400:	485f 6e61 6c64      	.byte	0x5f, 0x48, 0x61, 0x6e, 0x64, 0x6c
 406:	7265                	lui	tp,0xffff9
 408:	5300                	lw	s0,32(a4)
 40a:	7075                	c.lui	zero,0xffffd
 40c:	7265                	lui	tp,0xffff9
 40e:	6976                	ld	s2,344(sp)
 410:	45726f73          	csrrsi	t5,0x457,4
 414:	7478                	ld	a4,232(s0)
 416:	7265                	lui	tp,0xffff9
 418:	616e                	ld	sp,216(sp)
 41a:	5f6c                	lw	a1,124(a4)
 41c:	5249                	li	tp,-14
 41e:	6e51                	lui	t3,0x14
 420:	485f 6e61 6c64      	.byte	0x5f, 0x48, 0x61, 0x6e, 0x64, 0x6c
 426:	7265                	lui	tp,0xffff9
 428:	6600                	ld	s0,8(a2)
 42a:	5f727363          	bgeu	tp,s7,a10 <_start-0x7ffff5f0>
 42e:	6176                	ld	sp,344(sp)
 430:	006c                	addi	a1,sp,12
 432:	736d                	lui	t1,0xffffb
 434:	6174                	ld	a3,192(a0)
 436:	7574                	ld	a3,232(a0)
 438:	79730073          	.4byte	0x79730073
 43c:	6d657473          	csrrci	s0,0x6d6,10
 440:	695f 696e 0074      	.byte	0x5f, 0x69, 0x6e, 0x69, 0x74, 0x00
 446:	7355                	lui	t1,0xffff5
 448:	7265                	lui	tp,0xffff9
 44a:	6954                	ld	a3,144(a0)
 44c:	656d                	lui	a0,0x1b
 44e:	5f72                	lw	t5,60(sp)
 450:	5249                	li	tp,-14
 452:	6e51                	lui	t3,0x14
 454:	485f 6e61 6c64      	.byte	0x5f, 0x48, 0x61, 0x6e, 0x64, 0x6c
 45a:	7265                	lui	tp,0xffff9
 45c:	4800                	lw	s0,16(s0)
 45e:	7079                	c.lui	zero,0xffffe
 460:	7265                	lui	tp,0xffff9
 462:	6976                	ld	s2,344(sp)
 464:	45726f73          	csrrsi	t5,0x457,4
 468:	7478                	ld	a4,232(s0)
 46a:	7265                	lui	tp,0xffff9
 46c:	616e                	ld	sp,216(sp)
 46e:	5f6c                	lw	a1,124(a4)
 470:	5249                	li	tp,-14
 472:	6e51                	lui	t3,0x14
 474:	485f 6e61 6c64      	.byte	0x5f, 0x48, 0x61, 0x6e, 0x64, 0x6c
 47a:	7265                	lui	tp,0xffff9
 47c:	6900                	ld	s0,16(a0)
 47e:	7172                	ld	sp,312(sp)
 480:	72756f53          	.4byte	0x72756f53
 484:	4d006563          	bltu	zero,a6,94e <_start-0x7ffff6b2>
 488:	6361                	lui	t1,0x18
 48a:	6968                	ld	a0,208(a0)
 48c:	656e                	ld	a0,216(sp)
 48e:	6954                	ld	a3,144(a0)
 490:	656d                	lui	a0,0x1b
 492:	5f72                	lw	t5,60(sp)
 494:	5249                	li	tp,-14
 496:	6e51                	lui	t3,0x14
 498:	485f 6e61 6c64      	.byte	0x5f, 0x48, 0x61, 0x6e, 0x64, 0x6c
 49e:	7265                	lui	tp,0xffff9
 4a0:	5300                	lw	s0,32(a4)
 4a2:	7075                	c.lui	zero,0xffffd
 4a4:	7265                	lui	tp,0xffff9
 4a6:	6976                	ld	s2,344(sp)
 4a8:	53726f73          	csrrsi	t5,0x537,4
 4ac:	7774666f          	jal	a2,47422 <_start-0x7ffb8bde>
 4b0:	7261                	lui	tp,0xffff8
 4b2:	5f65                	li	t5,-7
 4b4:	5249                	li	tp,-14
 4b6:	6e51                	lui	t3,0x14
 4b8:	485f 6e61 6c64      	.byte	0x5f, 0x48, 0x61, 0x6e, 0x64, 0x6c
 4be:	7265                	lui	tp,0xffff9
 4c0:	5200                	lw	s0,32(a2)
 4c2:	5345                	li	t1,-15
 4c4:	5245                	li	tp,-15
 4c6:	4556                	lw	a0,84(sp)
 4c8:	3044                	fld	fs1,160(s0)
 4ca:	5200                	lw	s0,32(a2)
 4cc:	5345                	li	t1,-15
 4ce:	5245                	li	tp,-15
 4d0:	4556                	lw	a0,84(sp)
 4d2:	3144                	fld	fs1,160(a0)
 4d4:	4800                	lw	s0,16(s0)
 4d6:	7079                	c.lui	zero,0xffffe
 4d8:	7265                	lui	tp,0xffff9
 4da:	6976                	ld	s2,344(sp)
 4dc:	54726f73          	csrrsi	t5,0x547,4
 4e0:	6d69                	lui	s10,0x1a
 4e2:	7265                	lui	tp,0xffff9
 4e4:	495f 5152 5f6e      	.byte	0x5f, 0x49, 0x52, 0x51, 0x6e, 0x5f
 4ea:	6148                	ld	a0,128(a0)
 4ec:	646e                	ld	s0,216(sp)
 4ee:	656c                	ld	a1,200(a0)
 4f0:	0072                	c.slli	zero,0x1c
 4f2:	4e494c43          	.4byte	0x4e494c43
 4f6:	5f54                	lw	a3,60(a4)
 4f8:	7954                	ld	a3,176(a0)
 4fa:	6570                	ld	a2,200(a0)
 4fc:	6544                	ld	s1,136(a0)
 4fe:	0066                	c.slli	zero,0x19
 500:	534d                	li	t1,-13
 502:	5049                	c.li	zero,-14
 504:	5300                	lw	s0,32(a4)
 506:	7075                	c.lui	zero,0xffffd
 508:	7265                	lui	tp,0xffff9
 50a:	6976                	ld	s2,344(sp)
 50c:	54726f73          	csrrsi	t5,0x547,4
 510:	6d69                	lui	s10,0x1a
 512:	7265                	lui	tp,0xffff9
 514:	495f 5152 5f6e      	.byte	0x5f, 0x49, 0x52, 0x51, 0x6e, 0x5f
 51a:	6148                	ld	a0,128(a0)
 51c:	646e                	ld	s0,216(sp)
 51e:	656c                	ld	a1,200(a0)
 520:	0072                	c.slli	zero,0x1c
 522:	614d                	addi	sp,sp,176
 524:	6e696863          	bltu	s2,t1,c14 <_start-0x7ffff3ec>
 528:	5365                	li	t1,-7
 52a:	7774666f          	jal	a2,474a0 <_start-0x7ffb8b60>
 52e:	7261                	lui	tp,0xffff8
 530:	5f65                	li	t5,-7
 532:	5249                	li	tp,-14
 534:	6e51                	lui	t3,0x14
 536:	485f 6e61 6c64      	.byte	0x5f, 0x48, 0x61, 0x6e, 0x64, 0x6c
 53c:	7265                	lui	tp,0xffff9
 53e:	6d00                	ld	s0,24(a0)
 540:	635f 7561 6573      	.byte	0x5f, 0x63, 0x61, 0x75, 0x73, 0x65
 546:	5500                	lw	s0,40(a0)
 548:	45726573          	csrrsi	a0,0x457,4
 54c:	7478                	ld	a4,232(s0)
 54e:	7265                	lui	tp,0xffff9
 550:	616e                	ld	sp,216(sp)
 552:	5f6c                	lw	a1,124(a4)
 554:	5249                	li	tp,-14
 556:	6e51                	lui	t3,0x14
 558:	485f 6e61 6c64      	.byte	0x5f, 0x48, 0x61, 0x6e, 0x64, 0x6c
 55e:	7265                	lui	tp,0xffff9
 560:	7400                	ld	s0,40(s0)
 562:	6d69                	lui	s10,0x1a
 564:	0065                	c.nop	25
 566:	4148                	lw	a0,4(a0)
 568:	5f4c                	lw	a1,60(a4)
 56a:	4e494c43          	.4byte	0x4e494c43
 56e:	5f54                	lw	a3,60(a4)
 570:	4d746567          	.4byte	0x4d746567
 574:	6954                	ld	a3,144(a0)
 576:	656d                	lui	a0,0x1b
 578:	7400                	ld	s0,40(s0)
 57a:	7261                	lui	tp,0xffff8
 57c:	5f746567          	.4byte	0x5f746567
 580:	6974                	ld	a3,208(a0)
 582:	48006b63          	bltu	zero,zero,a18 <_start-0x7ffff5e8>
 586:	4c41                	li	s8,16
 588:	675f 7465 6954      	.byte	0x5f, 0x67, 0x65, 0x74, 0x54, 0x69
 58e:	48006b63          	bltu	zero,zero,a24 <_start-0x7ffff5dc>
 592:	7079                	c.lui	zero,0xffffe
 594:	7265                	lui	tp,0xffff9
 596:	6976                	ld	s2,344(sp)
 598:	53726f73          	csrrsi	t5,0x537,4
 59c:	7774666f          	jal	a2,47512 <_start-0x7ffb8aee>
 5a0:	7261                	lui	tp,0xffff8
 5a2:	5f65                	li	t5,-7
 5a4:	5249                	li	tp,-14
 5a6:	6e51                	lui	t3,0x14
 5a8:	5500                	lw	s0,40(a0)
 5aa:	53726573          	csrrsi	a0,0x537,4
 5ae:	7774666f          	jal	a2,47524 <_start-0x7ffb8adc>
 5b2:	7261                	lui	tp,0xffff8
 5b4:	5f65                	li	t5,-7
 5b6:	5249                	li	tp,-14
 5b8:	6e51                	lui	t3,0x14
 5ba:	5500                	lw	s0,40(a0)
 5bc:	54726573          	csrrsi	a0,0x547,4
 5c0:	6d69                	lui	s10,0x1a
 5c2:	7265                	lui	tp,0xffff9
 5c4:	495f 5152 006e      	.byte	0x5f, 0x49, 0x52, 0x51, 0x6e, 0x00
 5ca:	7948                	ld	a0,176(a0)
 5cc:	6570                	ld	a2,200(a0)
 5ce:	7672                	ld	a2,312(sp)
 5d0:	7369                	lui	t1,0xffffa
 5d2:	6954726f          	jal	tp,48466 <_start-0x7ffb7b9a>
 5d6:	656d                	lui	a0,0x1b
 5d8:	5f72                	lw	t5,60(sp)
 5da:	5249                	li	tp,-14
 5dc:	6e51                	lui	t3,0x14
 5de:	5300                	lw	s0,32(a4)
 5e0:	7075                	c.lui	zero,0xffffd
 5e2:	7265                	lui	tp,0xffff9
 5e4:	6976                	ld	s2,344(sp)
 5e6:	53726f73          	csrrsi	t5,0x537,4
 5ea:	7774666f          	jal	a2,47560 <_start-0x7ffb8aa0>
 5ee:	7261                	lui	tp,0xffff8
 5f0:	5f65                	li	t5,-7
 5f2:	5249                	li	tp,-14
 5f4:	6e51                	lui	t3,0x14
 5f6:	4800                	lw	s0,16(s0)
 5f8:	4c41                	li	s8,16
 5fa:	435f 524f 5f45      	.byte	0x5f, 0x43, 0x4f, 0x52, 0x45, 0x5f
 600:	6e65                	lui	t3,0x19
 602:	6261                	lui	tp,0x18
 604:	656c                	ld	a1,200(a0)
 606:	5249                	li	tp,-14
 608:	0051                	c.nop	20
 60a:	7355                	lui	t1,0xffff5
 60c:	7265                	lui	tp,0xffff9
 60e:	7845                	lui	a6,0xffff1
 610:	6574                	ld	a3,200(a0)
 612:	6e72                	ld	t3,280(sp)
 614:	6c61                	lui	s8,0x18
 616:	495f 5152 006e      	.byte	0x5f, 0x49, 0x52, 0x51, 0x6e, 0x00
 61c:	616d                	addi	sp,sp,240
 61e:	48006b73          	csrrsi	s6,0x480,0
 622:	7079                	c.lui	zero,0xffffe
 624:	7265                	lui	tp,0xffff9
 626:	6976                	ld	s2,344(sp)
 628:	45726f73          	csrrsi	t5,0x457,4
 62c:	7478                	ld	a4,232(s0)
 62e:	7265                	lui	tp,0xffff9
 630:	616e                	ld	sp,216(sp)
 632:	5f6c                	lw	a1,124(a4)
 634:	5249                	li	tp,-14
 636:	6e51                	lui	t3,0x14
 638:	4d00                	lw	s0,24(a0)
 63a:	6361                	lui	t1,0x18
 63c:	6968                	ld	a0,208(a0)
 63e:	656e                	ld	a0,216(sp)
 640:	7845                	lui	a6,0xffff1
 642:	6574                	ld	a3,200(a0)
 644:	6e72                	ld	t3,280(sp)
 646:	6c61                	lui	s8,0x18
 648:	495f 5152 006e      	.byte	0x5f, 0x49, 0x52, 0x51, 0x6e, 0x00
 64e:	614d                	addi	sp,sp,176
 650:	6e696863          	bltu	s2,t1,d40 <_start-0x7ffff2c0>
 654:	5365                	li	t1,-7
 656:	7774666f          	jal	a2,475cc <_start-0x7ffb8a34>
 65a:	7261                	lui	tp,0xffff8
 65c:	5f65                	li	t5,-7
 65e:	5249                	li	tp,-14
 660:	6e51                	lui	t3,0x14
 662:	5300                	lw	s0,32(a4)
 664:	7075                	c.lui	zero,0xffffd
 666:	7265                	lui	tp,0xffff9
 668:	6976                	ld	s2,344(sp)
 66a:	45726f73          	csrrsi	t5,0x457,4
 66e:	7478                	ld	a4,232(s0)
 670:	7265                	lui	tp,0xffff9
 672:	616e                	ld	sp,216(sp)
 674:	5f6c                	lw	a1,124(a4)
 676:	5249                	li	tp,-14
 678:	6e51                	lui	t3,0x14
 67a:	4900                	lw	s0,16(a0)
 67c:	5152                	lw	sp,52(sp)
 67e:	5f6e                	lw	t5,248(sp)
 680:	7954                	ld	a3,176(a0)
 682:	6570                	ld	a2,200(a0)
 684:	5300                	lw	s0,32(a4)
 686:	7075                	c.lui	zero,0xffffd
 688:	7265                	lui	tp,0xffff9
 68a:	6976                	ld	s2,344(sp)
 68c:	54726f73          	csrrsi	t5,0x547,4
 690:	6d69                	lui	s10,0x1a
 692:	7265                	lui	tp,0xffff9
 694:	495f 5152 006e      	.byte	0x5f, 0x49, 0x52, 0x51, 0x6e, 0x00
 69a:	614d                	addi	sp,sp,176
 69c:	6e696863          	bltu	s2,t1,d8c <_start-0x7ffff274>
 6a0:	5465                	li	s0,-7
 6a2:	6d69                	lui	s10,0x1a
 6a4:	7265                	lui	tp,0xffff9
 6a6:	495f 5152 006e      	.byte	0x5f, 0x49, 0x52, 0x51, 0x6e, 0x00
 6ac:	4148                	lw	a0,4(a0)
 6ae:	5f4c                	lw	a1,60(a4)
 6b0:	45524f43          	.4byte	0x45524f43
 6b4:	655f 616e 6c62      	.byte	0x5f, 0x65, 0x6e, 0x61, 0x62, 0x6c
 6ba:	4965                	li	s2,25
 6bc:	746e                	ld	s0,248(sp)
 6be:	7265                	lui	tp,0xffff9
 6c0:	7572                	ld	a0,312(sp)
 6c2:	7470                	ld	a2,232(s0)
 6c4:	7400                	ld	s0,40(s0)
 6c6:	6d69                	lui	s10,0x1a
 6c8:	5f65                	li	t5,-7
 6ca:	6f6c                	ld	a1,216(a4)
 6cc:	4800                	lw	s0,16(s0)
 6ce:	4c41                	li	s8,16
 6d0:	435f 494c 544e      	.byte	0x5f, 0x43, 0x4c, 0x49, 0x4e, 0x54
 6d6:	735f 7465 544d      	.byte	0x5f, 0x73, 0x65, 0x74, 0x4d, 0x54
 6dc:	6d69                	lui	s10,0x1a
 6de:	4365                	li	t1,25
 6e0:	706d                	c.lui	zero,0xffffb
 6e2:	7400                	ld	s0,40(s0)
 6e4:	6d69                	lui	s10,0x1a
 6e6:	5f65                	li	t5,-7
 6e8:	6968                	ld	a0,208(a0)
 6ea:	6800                	ld	s0,16(s0)
 6ec:	7261                	lui	tp,0xffff8
 6ee:	6974                	ld	a3,208(a0)
 6f0:	0064                	addi	s1,sp,12
 6f2:	4148                	lw	a0,4(a0)
 6f4:	5f4c                	lw	a1,60(a4)
 6f6:	4e494c43          	.4byte	0x4e494c43
 6fa:	5f54                	lw	a3,60(a4)
 6fc:	7274                	ld	a3,224(a2)
 6fe:	6769                	lui	a4,0x1a
 700:	49726567          	.4byte	0x49726567
 704:	746e                	ld	s0,248(sp)
 706:	7265                	lui	tp,0xffff9
 708:	7572                	ld	a0,312(sp)
 70a:	7470                	ld	a2,232(s0)
 70c:	4700                	lw	s0,8(a4)
 70e:	4950                	lw	a2,20(a0)
 710:	79545f4f          	fnmadd.s	ft10,fs0,fs5,fa5,unknown
 714:	6570                	ld	a2,200(a0)
 716:	6544                	ld	s1,136(a0)
 718:	0066                	c.slli	zero,0x19
 71a:	5054554f          	fnmadd.s	fa0,fs0,ft5,fa0,unknown
 71e:	5455                	li	s0,-11
 720:	455f 004e 4e49      	.byte	0x5f, 0x45, 0x4e, 0x00, 0x49, 0x4e
 726:	5550                	lw	a2,44(a0)
 728:	5f54                	lw	a3,60(a4)
 72a:	4156                	lw	sp,84(sp)
 72c:	004c                	addi	a1,sp,4
 72e:	4f4c                	lw	a1,28(a4)
 730:	50495f57          	.4byte	0x50495f57
 734:	7600                	ld	s0,40(a2)
 736:	6c61                	lui	s8,0x18
 738:	6575                	lui	a0,0x1d
 73a:	5200                	lw	s0,32(a2)
 73c:	5349                	li	t1,-14
 73e:	5f45                	li	t5,-15
 740:	4549                	li	a0,18
 742:	5200                	lw	s0,32(a2)
 744:	5349                	li	t1,-14
 746:	5f45                	li	t5,-15
 748:	5049                	c.li	zero,-14
 74a:	4800                	lw	s0,16(s0)
 74c:	4c41                	li	s8,16
 74e:	475f 4950 5f4f      	.byte	0x5f, 0x47, 0x50, 0x49, 0x4f, 0x5f
 754:	6e69                	lui	t3,0x1a
 756:	7469                	lui	s0,0xffffa
 758:	4700                	lw	s0,8(a4)
 75a:	4950                	lw	a2,20(a0)
 75c:	69505f4f          	fnmadd.s	ft10,ft0,fs5,fa3,unknown
 760:	006e                	c.slli	zero,0x1b
 762:	4f4c                	lw	a1,28(a4)
 764:	45495f57          	.4byte	0x45495f57
 768:	4800                	lw	s0,16(s0)
 76a:	4c41                	li	s8,16
 76c:	475f 4950 5f4f      	.byte	0x5f, 0x47, 0x50, 0x49, 0x4f, 0x5f
 772:	74697277          	.4byte	0x74697277
 776:	5065                	c.li	zero,-7
 778:	6e69                	lui	t3,0x1a
 77a:	4f00                	lw	s0,24(a4)
 77c:	5455                	li	s0,-11
 77e:	585f 524f 4600      	.byte	0x5f, 0x58, 0x4f, 0x52, 0x00, 0x46
 784:	4c41                	li	s8,16
 786:	5f4c                	lw	a1,60(a4)
 788:	4549                	li	a0,18
 78a:	4600                	lw	s0,8(a2)
 78c:	4c41                	li	s8,16
 78e:	5f4c                	lw	a1,60(a4)
 790:	5049                	c.li	zero,-14
 792:	4800                	lw	s0,16(s0)
 794:	4c41                	li	s8,16
 796:	475f 4950 5f4f      	.byte	0x5f, 0x47, 0x50, 0x49, 0x4f, 0x5f
 79c:	6572                	ld	a0,280(sp)
 79e:	6461                	lui	s0,0x18
 7a0:	6950                	ld	a2,144(a0)
 7a2:	006e                	c.slli	zero,0x1b
 7a4:	4f495047          	.4byte	0x4f495047
 7a8:	0078                	addi	a4,sp,12
 7aa:	4e49                	li	t3,18
 7ac:	5550                	lw	a2,44(a0)
 7ae:	5f54                	lw	a3,60(a4)
 7b0:	4e45                	li	t3,17
 7b2:	4800                	lw	s0,16(s0)
 7b4:	4749                	li	a4,18
 7b6:	5f48                	lw	a0,60(a4)
 7b8:	4549                	li	a0,18
 7ba:	4700                	lw	s0,8(a4)
 7bc:	4950                	lw	a2,20(a0)
 7be:	49505f4f          	fnmadd.s	ft10,ft0,fs5,fs1,unknown
 7c2:	5f4e                	lw	t5,240(sp)
 7c4:	0030                	addi	a2,sp,8
 7c6:	4948                	lw	a0,20(a0)
 7c8:	495f4847          	fmsub.s	fa6,ft10,fs5,fs1,rmm
 7cc:	0050                	addi	a2,sp,4
 7ce:	5054554f          	fnmadd.s	fa0,fs0,ft5,fa0,unknown
 7d2:	5455                	li	s0,-11
 7d4:	565f 4c41 4800      	.byte	0x5f, 0x56, 0x41, 0x4c, 0x00, 0x48
 7da:	4c41                	li	s8,16
 7dc:	525f 4343 495f      	.byte	0x5f, 0x52, 0x43, 0x43, 0x5f, 0x49
 7e2:	696e                	ld	s2,216(sp)
 7e4:	5374                	lw	a3,100(a4)
 7e6:	7379                	lui	t1,0xffffe
 7e8:	6574                	ld	a3,200(a0)
 7ea:	436d                	li	t1,27
 7ec:	6f6c                	ld	a1,216(a4)
 7ee:	55006b63          	bltu	zero,a6,d44 <_start-0x7ffff2bc>
 7f2:	5241                	li	tp,-16
 7f4:	7854                	ld	a3,176(s0)
 7f6:	4800                	lw	s0,16(s0)
 7f8:	4c41                	li	s8,16
 7fa:	555f 5241 5f54      	.byte	0x5f, 0x55, 0x41, 0x52, 0x54, 0x5f
 800:	52746567          	.4byte	0x52746567
 804:	4658                	lw	a4,12(a2)
 806:	4649                	li	a2,18
 808:	7065444f          	fnmadd.s	fs0,fa0,ft6,fa4,rmm
 80c:	6874                	ld	a3,208(s0)
 80e:	6400                	ld	s0,8(s0)
 810:	7461                	lui	s0,0xffff8
 812:	0061                	c.nop	24
 814:	657a6973          	csrrsi	s2,0x657,20
 818:	4800                	lw	s0,16(s0)
 81a:	4c41                	li	s8,16
 81c:	555f 5241 5f54      	.byte	0x5f, 0x55, 0x41, 0x52, 0x54, 0x5f
 822:	54746567          	.4byte	0x54746567
 826:	4658                	lw	a4,12(a2)
 828:	4649                	li	a2,18
 82a:	7065444f          	fnmadd.s	fs0,fa0,ft6,fa4,rmm
 82e:	6874                	ld	a3,208(s0)
 830:	4800                	lw	s0,16(s0)
 832:	4c41                	li	s8,16
 834:	555f 5241 5f54      	.byte	0x5f, 0x55, 0x41, 0x52, 0x54, 0x5f
 83a:	6572                	ld	a0,280(sp)
 83c:	76696563          	bltu	s2,t1,fa6 <_start-0x7ffff05a>
 840:	0065                	c.nop	25
 842:	6974                	ld	a3,208(a0)
 844:	656d                	lui	a0,0x1b
 846:	0074756f          	jal	a0,4804c <_start-0x7ffb7fb4>

Disassembly of section .debug_rnglists:

0000000000000000 <.debug_rnglists>:
   0:	001f 0000 0005      	.byte	0x1f, 0x00, 0x00, 0x00, 0x05, 0x00
   6:	0008                	.2byte	0x8
   8:	0000                	unimp
   a:	0000                	unimp
   c:	00035207          	.4byte	0x35207
  10:	0080                	addi	s0,sp,64
  12:	0000                	unimp
  14:	8c00                	.2byte	0x8c00
  16:	0701                	addi	a4,a4,0 # 1a000 <_start-0x7ffe6000>
  18:	0000                	unimp
  1a:	8000                	.2byte	0x8000
  1c:	0000                	unimp
  1e:	0000                	unimp
  20:	0198                	addi	a4,sp,192
  22:	2b00                	fld	fs0,16(a4)
  24:	0000                	unimp
  26:	0500                	addi	s0,sp,640
  28:	0800                	addi	s0,sp,16
  2a:	0000                	unimp
  2c:	0000                	unimp
  2e:	0600                	addi	s0,sp,768
  30:	0092                	slli	ra,ra,0x4
  32:	8000                	.2byte	0x8000
  34:	0000                	unimp
  36:	0000                	unimp
  38:	00e6                	slli	ra,ra,0x19
  3a:	8000                	.2byte	0x8000
  3c:	0000                	unimp
  3e:	0000                	unimp
  40:	da06                	sw	ra,52(sp)
  42:	00800003          	lb	zero,8(zero) # 8 <_start-0x7ffffff8>
  46:	0000                	unimp
  48:	0800                	addi	s0,sp,16
  4a:	0005                	c.nop	1
  4c:	0080                	addi	s0,sp,64
  4e:	0000                	unimp
  50:	0000                	unimp
  52:	0000006f          	j	52 <_start-0x7fffffae>
  56:	0005                	c.nop	1
  58:	0008                	.2byte	0x8
  5a:	0000                	unimp
  5c:	0000                	unimp
  5e:	cc06                	sw	ra,24(sp)
  60:	0001                	nop
  62:	0080                	addi	s0,sp,64
  64:	0000                	unimp
  66:	cc00                	sw	s0,24(s0)
  68:	0001                	nop
  6a:	0080                	addi	s0,sp,64
  6c:	0000                	unimp
  6e:	0600                	addi	s0,sp,768
  70:	01ce                	slli	gp,gp,0x13
  72:	8000                	.2byte	0x8000
  74:	0000                	unimp
  76:	0000                	unimp
  78:	01d2                	slli	gp,gp,0x14
  7a:	8000                	.2byte	0x8000
  7c:	0000                	unimp
  7e:	0000                	unimp
  80:	d406                	sw	ra,40(sp)
  82:	0001                	nop
  84:	0080                	addi	s0,sp,64
  86:	0000                	unimp
  88:	ea00                	sd	s0,16(a2)
  8a:	0001                	nop
  8c:	0080                	addi	s0,sp,64
  8e:	0000                	unimp
  90:	0600                	addi	s0,sp,768
  92:	01ec                	addi	a1,sp,204
  94:	8000                	.2byte	0x8000
  96:	0000                	unimp
  98:	0000                	unimp
  9a:	01f0                	addi	a2,sp,204
  9c:	8000                	.2byte	0x8000
  9e:	0000                	unimp
  a0:	0000                	unimp
  a2:	f006                	sd	ra,32(sp)
  a4:	0001                	nop
  a6:	0080                	addi	s0,sp,64
  a8:	0000                	unimp
  aa:	f200                	sd	s0,32(a2)
  ac:	0001                	nop
  ae:	0080                	addi	s0,sp,64
  b0:	0000                	unimp
  b2:	0600                	addi	s0,sp,768
  b4:	01f4                	addi	a3,sp,204
  b6:	8000                	.2byte	0x8000
  b8:	0000                	unimp
  ba:	0000                	unimp
  bc:	0208                	addi	a0,sp,256
  be:	8000                	.2byte	0x8000
  c0:	0000                	unimp
  c2:	0000                	unimp
  c4:	2b00                	fld	fs0,16(a4)
  c6:	0000                	unimp
  c8:	0500                	addi	s0,sp,640
  ca:	0800                	addi	s0,sp,16
  cc:	0000                	unimp
  ce:	0000                	unimp
  d0:	0600                	addi	s0,sp,768
  d2:	020c                	addi	a1,sp,256
  d4:	8000                	.2byte	0x8000
  d6:	0000                	unimp
  d8:	0000                	unimp
  da:	020c                	addi	a1,sp,256
  dc:	8000                	.2byte	0x8000
  de:	0000                	unimp
  e0:	0000                	unimp
  e2:	1406                	slli	s0,s0,0x21
  e4:	0002                	c.slli64	zero
  e6:	0080                	addi	s0,sp,64
  e8:	0000                	unimp
  ea:	1800                	addi	s0,sp,48
  ec:	0002                	c.slli64	zero
  ee:	0080                	addi	s0,sp,64
  f0:	0000                	unimp
	...

Disassembly of section .debug_loclists:

0000000000000000 <.debug_loclists>:
   0:	0258                	addi	a4,sp,260
   2:	0000                	unimp
   4:	0005                	c.nop	1
   6:	0008                	.2byte	0x8
   8:	0000                	unimp
   a:	0000                	unimp
   c:	00040807          	.4byte	0x40807
  10:	0080                	addi	s0,sp,64
  12:	0000                	unimp
  14:	8400                	.2byte	0x8400
  16:	0004                	.2byte	0x4
  18:	0080                	addi	s0,sp,64
  1a:	0000                	unimp
  1c:	0200                	addi	s0,sp,256
  1e:	9f3a                	add	t5,t5,a4
  20:	00048407          	.4byte	0x48407
  24:	0080                	addi	s0,sp,64
  26:	0000                	unimp
  28:	0800                	addi	s0,sp,16
  2a:	0005                	c.nop	1
  2c:	0080                	addi	s0,sp,64
  2e:	0000                	unimp
  30:	0100                	addi	s0,sp,128
  32:	0059                	c.nop	22
  34:	00040807          	.4byte	0x40807
  38:	0080                	addi	s0,sp,64
  3a:	0000                	unimp
  3c:	8400                	.2byte	0x8400
  3e:	0004                	.2byte	0x4
  40:	0080                	addi	s0,sp,64
  42:	0000                	unimp
  44:	0200                	addi	s0,sp,256
  46:	84079f33          	.4byte	0x84079f33
  4a:	0004                	.2byte	0x4
  4c:	0080                	addi	s0,sp,64
  4e:	0000                	unimp
  50:	0800                	addi	s0,sp,16
  52:	0005                	c.nop	1
  54:	0080                	addi	s0,sp,64
  56:	0000                	unimp
  58:	0100                	addi	s0,sp,128
  5a:	0062                	c.slli	zero,0x18
  5c:	00040c07          	.4byte	0x40c07
  60:	0080                	addi	s0,sp,64
  62:	0000                	unimp
  64:	8400                	.2byte	0x8400
  66:	0004                	.2byte	0x4
  68:	0080                	addi	s0,sp,64
  6a:	0000                	unimp
  6c:	0600                	addi	s0,sp,768
  6e:	049e                	slli	s1,s1,0x7
  70:	0000                	unimp
  72:	4120                	lw	s0,64(a0)
  74:	00048407          	.4byte	0x48407
  78:	0080                	addi	s0,sp,64
  7a:	0000                	unimp
  7c:	0800                	addi	s0,sp,16
  7e:	0005                	c.nop	1
  80:	0080                	addi	s0,sp,64
  82:	0000                	unimp
  84:	0200                	addi	s0,sp,256
  86:	2990                	fld	fa2,16(a1)
  88:	0700                	addi	s0,sp,896
  8a:	040c                	addi	a1,sp,512
  8c:	8000                	.2byte	0x8000
  8e:	0000                	unimp
  90:	0000                	unimp
  92:	0484                	addi	s1,sp,576
  94:	8000                	.2byte	0x8000
  96:	0000                	unimp
  98:	0000                	unimp
  9a:	9e06                	add	t3,t3,ra
  9c:	0004                	.2byte	0x4
  9e:	4000                	lw	s0,0(s0)
  a0:	0740                	addi	s0,sp,900
  a2:	0484                	addi	s1,sp,576
  a4:	8000                	.2byte	0x8000
  a6:	0000                	unimp
  a8:	0000                	unimp
  aa:	0508                	addi	a0,sp,640
  ac:	8000                	.2byte	0x8000
  ae:	0000                	unimp
  b0:	0000                	unimp
  b2:	9002                	ebreak
  b4:	0028                	addi	a0,sp,8
  b6:	0000d407          	.4byte	0xd407
  ba:	0080                	addi	s0,sp,64
  bc:	0000                	unimp
  be:	dc00                	sw	s0,56(s0)
  c0:	0000                	unimp
  c2:	0080                	addi	s0,sp,64
  c4:	0000                	unimp
  c6:	0100                	addi	s0,sp,128
  c8:	075a                	slli	a4,a4,0x16
  ca:	00dc                	addi	a5,sp,68
  cc:	8000                	.2byte	0x8000
  ce:	0000                	unimp
  d0:	0000                	unimp
  d2:	00e6                	slli	ra,ra,0x19
  d4:	8000                	.2byte	0x8000
  d6:	0000                	unimp
  d8:	0000                	unimp
  da:	a304                	fsd	fs1,0(a4)
  dc:	5a01                	li	s4,-32
  de:	009f c207 0000      	.byte	0x9f, 0x00, 0x07, 0xc2, 0x00, 0x00
  e4:	0080                	addi	s0,sp,64
  e6:	0000                	unimp
  e8:	ca00                	sw	s0,16(a2)
  ea:	0000                	unimp
  ec:	0080                	addi	s0,sp,64
  ee:	0000                	unimp
  f0:	0100                	addi	s0,sp,128
  f2:	075a                	slli	a4,a4,0x16
  f4:	00ca                	slli	ra,ra,0x12
  f6:	8000                	.2byte	0x8000
  f8:	0000                	unimp
  fa:	0000                	unimp
  fc:	00d4                	addi	a3,sp,68
  fe:	8000                	.2byte	0x8000
 100:	0000                	unimp
 102:	0000                	unimp
 104:	a304                	fsd	fs1,0(a4)
 106:	5a01                	li	s4,-32
 108:	009f b007 0000      	.byte	0x9f, 0x00, 0x07, 0xb0, 0x00, 0x00
 10e:	0080                	addi	s0,sp,64
 110:	0000                	unimp
 112:	b800                	fsd	fs0,48(s0)
 114:	0000                	unimp
 116:	0080                	addi	s0,sp,64
 118:	0000                	unimp
 11a:	0100                	addi	s0,sp,128
 11c:	075a                	slli	a4,a4,0x16
 11e:	00b8                	addi	a4,sp,72
 120:	8000                	.2byte	0x8000
 122:	0000                	unimp
 124:	0000                	unimp
 126:	00c2                	slli	ra,ra,0x10
 128:	8000                	.2byte	0x8000
 12a:	0000                	unimp
 12c:	0000                	unimp
 12e:	a304                	fsd	fs1,0(a4)
 130:	5a01                	li	s4,-32
 132:	009f a007 0000      	.byte	0x9f, 0x00, 0x07, 0xa0, 0x00, 0x00
 138:	0080                	addi	s0,sp,64
 13a:	0000                	unimp
 13c:	a400                	fsd	fs0,8(s0)
 13e:	0000                	unimp
 140:	0080                	addi	s0,sp,64
 142:	0000                	unimp
 144:	0100                	addi	s0,sp,128
 146:	075a                	slli	a4,a4,0x16
 148:	00a4                	addi	s1,sp,72
 14a:	8000                	.2byte	0x8000
 14c:	0000                	unimp
 14e:	0000                	unimp
 150:	00b0                	addi	a2,sp,72
 152:	8000                	.2byte	0x8000
 154:	0000                	unimp
 156:	0000                	unimp
 158:	a304                	fsd	fs1,0(a4)
 15a:	5a01                	li	s4,-32
 15c:	009f a007 0000      	.byte	0x9f, 0x00, 0x07, 0xa0, 0x00, 0x00
 162:	0080                	addi	s0,sp,64
 164:	0000                	unimp
 166:	af00                	fsd	fs0,24(a4)
 168:	0000                	unimp
 16a:	0080                	addi	s0,sp,64
 16c:	0000                	unimp
 16e:	0100                	addi	s0,sp,128
 170:	00af075b          	.4byte	0xaf075b
 174:	8000                	.2byte	0x8000
 176:	0000                	unimp
 178:	0000                	unimp
 17a:	00b0                	addi	a2,sp,72
 17c:	8000                	.2byte	0x8000
 17e:	0000                	unimp
 180:	0000                	unimp
 182:	a304                	fsd	fs1,0(a4)
 184:	5b01                	li	s6,-32
 186:	009f a007 0000      	.byte	0x9f, 0x00, 0x07, 0xa0, 0x00, 0x00
 18c:	0080                	addi	s0,sp,64
 18e:	0000                	unimp
 190:	a400                	fsd	fs0,8(s0)
 192:	0000                	unimp
 194:	0080                	addi	s0,sp,64
 196:	0000                	unimp
 198:	1200                	addi	s0,sp,288
 19a:	007a                	c.slli	zero,0x1e
 19c:	2435                	addiw	s0,s0,13 # ffffffffffff800d <__global_pointer$+0xffffffff7fff63a5>
 19e:	ff0c                	sd	a1,56(a4)
 1a0:	ffff                	.2byte	0xffff
 1a2:	1aff                	.2byte	0x1aff
 1a4:	2432                	fld	fs0,264(sp)
 1a6:	80c08023          	sb	a2,-2048(ra)
 1aa:	9f60                	.2byte	0x9f60
 1ac:	0000a407          	flw	fs0,0(ra)
 1b0:	0080                	addi	s0,sp,64
 1b2:	0000                	unimp
 1b4:	b000                	fsd	fs0,32(s0)
 1b6:	0000                	unimp
 1b8:	0080                	addi	s0,sp,64
 1ba:	0000                	unimp
 1bc:	1300                	addi	s0,sp,416
 1be:	355a01a3          	sb	s5,835(s4) # ffffffffffffa343 <__global_pointer$+0xffffffff7fff86db>
 1c2:	0c24                	addi	s1,sp,536
 1c4:	ffff                	.2byte	0xffff
 1c6:	ffff                	.2byte	0xffff
 1c8:	321a                	fld	ft4,416(sp)
 1ca:	2324                	fld	fs1,64(a4)
 1cc:	c080                	sw	s0,0(s1)
 1ce:	6080                	ld	s0,0(s1)
 1d0:	009f 9207 0000      	.byte	0x9f, 0x00, 0x07, 0x92, 0x00, 0x00
 1d6:	0080                	addi	s0,sp,64
 1d8:	0000                	unimp
 1da:	9a00                	.2byte	0x9a00
 1dc:	0000                	unimp
 1de:	0080                	addi	s0,sp,64
 1e0:	0000                	unimp
 1e2:	0100                	addi	s0,sp,128
 1e4:	009a075b          	.4byte	0x9a075b
 1e8:	8000                	.2byte	0x8000
 1ea:	0000                	unimp
 1ec:	0000                	unimp
 1ee:	00a0                	addi	s0,sp,72
 1f0:	8000                	.2byte	0x8000
 1f2:	0000                	unimp
 1f4:	0000                	unimp
 1f6:	a304                	fsd	fs1,0(a4)
 1f8:	5b01                	li	s6,-32
 1fa:	009f 9207 0000      	.byte	0x9f, 0x00, 0x07, 0x92, 0x00, 0x00
 200:	0080                	addi	s0,sp,64
 202:	0000                	unimp
 204:	9a00                	.2byte	0x9a00
 206:	0000                	unimp
 208:	0080                	addi	s0,sp,64
 20a:	0000                	unimp
 20c:	0500                	addi	s0,sp,640
 20e:	2535007b          	.4byte	0x2535007b
 212:	079f 009a 8000      	.byte	0x9f, 0x07, 0x9a, 0x00, 0x00, 0x80
 218:	0000                	unimp
 21a:	0000                	unimp
 21c:	00a0                	addi	s0,sp,72
 21e:	8000                	.2byte	0x8000
 220:	0000                	unimp
 222:	0000                	unimp
 224:	a306                	fsd	ft1,384(sp)
 226:	5b01                	li	s6,-32
 228:	2535                	addiw	a0,a0,13 # 1b00d <_start-0x7ffe4ff3>
 22a:	009f 9207 0000      	.byte	0x9f, 0x00, 0x07, 0x92, 0x00, 0x00
 230:	0080                	addi	s0,sp,64
 232:	0000                	unimp
 234:	9a00                	.2byte	0x9a00
 236:	0000                	unimp
 238:	0080                	addi	s0,sp,64
 23a:	0000                	unimp
 23c:	0500                	addi	s0,sp,640
 23e:	1a4f007b          	.4byte	0x1a4f007b
 242:	079f 009a 8000      	.byte	0x9f, 0x07, 0x9a, 0x00, 0x00, 0x80
 248:	0000                	unimp
 24a:	0000                	unimp
 24c:	00a0                	addi	s0,sp,72
 24e:	8000                	.2byte	0x8000
 250:	0000                	unimp
 252:	0000                	unimp
 254:	a306                	fsd	ft1,384(sp)
 256:	5b01                	li	s6,-32
 258:	009f1a4f          	fnmadd.s	fs4,ft10,fs1,ft0,rtz
 25c:	0154                	addi	a3,sp,132
 25e:	0000                	unimp
 260:	0005                	c.nop	1
 262:	0008                	.2byte	0x8
 264:	0000                	unimp
 266:	0000                	unimp
 268:	0001c607          	.4byte	0x1c607
 26c:	0080                	addi	s0,sp,64
 26e:	0000                	unimp
 270:	ca00                	sw	s0,16(a2)
 272:	0001                	nop
 274:	0080                	addi	s0,sp,64
 276:	0000                	unimp
 278:	0100                	addi	s0,sp,128
 27a:	075f 01ca 8000      	.byte	0x5f, 0x07, 0xca, 0x01, 0x00, 0x80
 280:	0000                	unimp
 282:	0000                	unimp
 284:	01e4                	addi	s1,sp,204
 286:	8000                	.2byte	0x8000
 288:	0000                	unimp
 28a:	0000                	unimp
 28c:	5e01                	li	t3,-32
 28e:	0001f607          	.4byte	0x1f607
 292:	0080                	addi	s0,sp,64
 294:	0000                	unimp
 296:	0200                	addi	s0,sp,256
 298:	0002                	c.slli64	zero
 29a:	0080                	addi	s0,sp,64
 29c:	0000                	unimp
 29e:	0100                	addi	s0,sp,128
 2a0:	075e                	slli	a4,a4,0x17
 2a2:	0206                	slli	tp,tp,0x1
 2a4:	8000                	.2byte	0x8000
 2a6:	0000                	unimp
 2a8:	0000                	unimp
 2aa:	0208                	addi	a0,sp,256
 2ac:	8000                	.2byte	0x8000
 2ae:	0000                	unimp
 2b0:	0000                	unimp
 2b2:	5e01                	li	t3,-32
 2b4:	0700                	addi	s0,sp,896
 2b6:	01c6                	slli	gp,gp,0x11
 2b8:	8000                	.2byte	0x8000
 2ba:	0000                	unimp
 2bc:	0000                	unimp
 2be:	01ca                	slli	gp,gp,0x12
 2c0:	8000                	.2byte	0x8000
 2c2:	0000                	unimp
 2c4:	0000                	unimp
 2c6:	7f05                	lui	t5,0xfffe1
 2c8:	4f00                	lw	s0,24(a4)
 2ca:	9f25                	addw	a4,a4,s1
 2cc:	0001ca07          	.4byte	0x1ca07
 2d0:	0080                	addi	s0,sp,64
 2d2:	0000                	unimp
 2d4:	e400                	sd	s0,8(s0)
 2d6:	0001                	nop
 2d8:	0080                	addi	s0,sp,64
 2da:	0000                	unimp
 2dc:	0500                	addi	s0,sp,640
 2de:	007e                	c.slli	zero,0x1f
 2e0:	079f254f          	.4byte	0x79f254f
 2e4:	01f6                	slli	gp,gp,0x1d
 2e6:	8000                	.2byte	0x8000
 2e8:	0000                	unimp
 2ea:	0000                	unimp
 2ec:	0202                	c.slli64	tp
 2ee:	8000                	.2byte	0x8000
 2f0:	0000                	unimp
 2f2:	0000                	unimp
 2f4:	7e05                	lui	t3,0xfffe1
 2f6:	4f00                	lw	s0,24(a4)
 2f8:	9f25                	addw	a4,a4,s1
 2fa:	00020607          	.4byte	0x20607
 2fe:	0080                	addi	s0,sp,64
 300:	0000                	unimp
 302:	0800                	addi	s0,sp,16
 304:	0002                	c.slli64	zero
 306:	0080                	addi	s0,sp,64
 308:	0000                	unimp
 30a:	0500                	addi	s0,sp,640
 30c:	007e                	c.slli	zero,0x1f
 30e:	009f254f          	fnmadd.s	fa0,ft10,fs1,ft0,rdn
 312:	0001ea07          	.4byte	0x1ea07
 316:	0080                	addi	s0,sp,64
 318:	0000                	unimp
 31a:	f200                	sd	s0,32(a2)
 31c:	0001                	nop
 31e:	0080                	addi	s0,sp,64
 320:	0000                	unimp
 322:	0100                	addi	s0,sp,128
 324:	075a                	slli	a4,a4,0x16
 326:	01f2                	slli	gp,gp,0x1c
 328:	8000                	.2byte	0x8000
 32a:	0000                	unimp
 32c:	0000                	unimp
 32e:	01f5                	addi	gp,gp,29 # 80001c85 <__global_pointer$+0x1d>
 330:	8000                	.2byte	0x8000
 332:	0000                	unimp
 334:	0000                	unimp
 336:	5b01                	li	s6,-32
 338:	0700                	addi	s0,sp,896
 33a:	0172                	slli	sp,sp,0x1c
 33c:	8000                	.2byte	0x8000
 33e:	0000                	unimp
 340:	0000                	unimp
 342:	0176                	slli	sp,sp,0x1d
 344:	8000                	.2byte	0x8000
 346:	0000                	unimp
 348:	0000                	unimp
 34a:	0a007f07          	.4byte	0xa007f07
 34e:	2000                	fld	fs0,0(s0)
 350:	9f21                	addw	a4,a4,s0
 352:	00017607          	.4byte	0x17607
 356:	0080                	addi	s0,sp,64
 358:	0000                	unimp
 35a:	8000                	.2byte	0x8000
 35c:	0001                	nop
 35e:	0080                	addi	s0,sp,64
 360:	0000                	unimp
 362:	0100                	addi	s0,sp,128
 364:	005f e607 0000      	.byte	0x5f, 0x00, 0x07, 0xe6, 0x00, 0x00
 36a:	0080                	addi	s0,sp,64
 36c:	0000                	unimp
 36e:	ee00                	sd	s0,24(a2)
 370:	0000                	unimp
 372:	0080                	addi	s0,sp,64
 374:	0000                	unimp
 376:	0200                	addi	s0,sp,256
 378:	9f30                	.2byte	0x9f30
 37a:	0000ee07          	.4byte	0xee07
 37e:	0080                	addi	s0,sp,64
 380:	0000                	unimp
 382:	fb00                	sd	s0,48(a4)
 384:	0000                	unimp
 386:	0080                	addi	s0,sp,64
 388:	0000                	unimp
 38a:	0100                	addi	s0,sp,128
 38c:	075c                	addi	a5,sp,900
 38e:	0118                	addi	a4,sp,128
 390:	8000                	.2byte	0x8000
 392:	0000                	unimp
 394:	0000                	unimp
 396:	0125                	addi	sp,sp,9
 398:	8000                	.2byte	0x8000
 39a:	0000                	unimp
 39c:	0000                	unimp
 39e:	5c01                	li	s8,-32
 3a0:	00014207          	.4byte	0x14207
 3a4:	0080                	addi	s0,sp,64
 3a6:	0000                	unimp
 3a8:	4f00                	lw	s0,24(a4)
 3aa:	0001                	nop
 3ac:	0080                	addi	s0,sp,64
 3ae:	0000                	unimp
 3b0:	0100                	addi	s0,sp,128
 3b2:	005c                	addi	a5,sp,4
 3b4:	0059                	c.nop	22
 3b6:	0000                	unimp
 3b8:	0005                	c.nop	1
 3ba:	0008                	.2byte	0x8
 3bc:	0000                	unimp
 3be:	0000                	unimp
 3c0:	00020c07          	.4byte	0x20c07
 3c4:	0080                	addi	s0,sp,64
 3c6:	0000                	unimp
 3c8:	1700                	addi	s0,sp,928
 3ca:	0002                	c.slli64	zero
 3cc:	0080                	addi	s0,sp,64
 3ce:	0000                	unimp
 3d0:	0100                	addi	s0,sp,128
 3d2:	075a                	slli	a4,a4,0x16
 3d4:	80000217          	auipc	tp,0x80000
 3d8:	0000                	unimp
 3da:	0000                	unimp
 3dc:	021e                	slli	tp,tp,0x7
 3de:	8000                	.2byte	0x8000
 3e0:	0000                	unimp
 3e2:	0000                	unimp
 3e4:	5801                	li	a6,-32
 3e6:	00021e07          	.4byte	0x21e07
 3ea:	0080                	addi	s0,sp,64
 3ec:	0000                	unimp
 3ee:	3000                	fld	fs0,32(s0)
 3f0:	0002                	c.slli64	zero
 3f2:	0080                	addi	s0,sp,64
 3f4:	0000                	unimp
 3f6:	0400                	addi	s0,sp,512
 3f8:	9f5a01a3          	sb	s5,-1565(s4)
 3fc:	0700                	addi	s0,sp,896
 3fe:	0220                	addi	s0,sp,264
 400:	8000                	.2byte	0x8000
 402:	0000                	unimp
 404:	0000                	unimp
 406:	022c                	addi	a1,sp,264
 408:	8000                	.2byte	0x8000
 40a:	0000                	unimp
 40c:	0000                	unimp
 40e:	5801                	li	a6,-32
 410:	3200                	fld	fs0,32(a2)
 412:	0000                	unimp
 414:	0500                	addi	s0,sp,640
 416:	0800                	addi	s0,sp,16
 418:	0000                	unimp
 41a:	0000                	unimp
 41c:	0700                	addi	s0,sp,896
 41e:	026a                	slli	tp,tp,0x1a
 420:	8000                	.2byte	0x8000
 422:	0000                	unimp
 424:	0000                	unimp
 426:	0272                	slli	tp,tp,0x1c
 428:	8000                	.2byte	0x8000
 42a:	0000                	unimp
 42c:	0000                	unimp
 42e:	5a01                	li	s4,-32
 430:	00027207          	.4byte	0x27207
 434:	0080                	addi	s0,sp,64
 436:	0000                	unimp
 438:	7600                	ld	s0,40(a2)
 43a:	0002                	c.slli64	zero
 43c:	0080                	addi	s0,sp,64
 43e:	0000                	unimp
 440:	0400                	addi	s0,sp,512
 442:	9f5a01a3          	sb	s5,-1565(s4)
 446:	5c00                	lw	s0,56(s0)
 448:	0000                	unimp
 44a:	0500                	addi	s0,sp,640
 44c:	0800                	addi	s0,sp,16
 44e:	0000                	unimp
 450:	0000                	unimp
 452:	0700                	addi	s0,sp,896
 454:	0288                	addi	a0,sp,320
 456:	8000                	.2byte	0x8000
 458:	0000                	unimp
 45a:	0000                	unimp
 45c:	0296                	slli	t0,t0,0x5
 45e:	8000                	.2byte	0x8000
 460:	0000                	unimp
 462:	0000                	unimp
 464:	5b01                	li	s6,-32
 466:	00029607          	.4byte	0x29607
 46a:	0080                	addi	s0,sp,64
 46c:	0000                	unimp
 46e:	9c00                	.2byte	0x9c00
 470:	0002                	c.slli64	zero
 472:	0080                	addi	s0,sp,64
 474:	0000                	unimp
 476:	0400                	addi	s0,sp,512
 478:	9f5b01a3          	sb	s5,-1565(s6)
 47c:	0700                	addi	s0,sp,896
 47e:	027e                	slli	tp,tp,0x1f
 480:	8000                	.2byte	0x8000
 482:	0000                	unimp
 484:	0000                	unimp
 486:	0280                	addi	s0,sp,320
 488:	8000                	.2byte	0x8000
 48a:	0000                	unimp
 48c:	0000                	unimp
 48e:	5a01                	li	s4,-32
 490:	00028007          	.4byte	0x28007
 494:	0080                	addi	s0,sp,64
 496:	0000                	unimp
 498:	8800                	.2byte	0x8800
 49a:	0002                	c.slli64	zero
 49c:	0080                	addi	s0,sp,64
 49e:	0000                	unimp
 4a0:	0400                	addi	s0,sp,512
 4a2:	9f5a01a3          	sb	s5,-1565(s4)
 4a6:	7200                	ld	s0,32(a2)
 4a8:	0001                	nop
 4aa:	0500                	addi	s0,sp,640
 4ac:	0800                	addi	s0,sp,16
 4ae:	0000                	unimp
 4b0:	0000                	unimp
 4b2:	0700                	addi	s0,sp,896
 4b4:	02f6                	slli	t0,t0,0x1d
 4b6:	8000                	.2byte	0x8000
 4b8:	0000                	unimp
 4ba:	0000                	unimp
 4bc:	02fa                	slli	t0,t0,0x1e
 4be:	8000                	.2byte	0x8000
 4c0:	0000                	unimp
 4c2:	0000                	unimp
 4c4:	5a01                	li	s4,-32
 4c6:	0002fa07          	.4byte	0x2fa07
 4ca:	0080                	addi	s0,sp,64
 4cc:	0000                	unimp
 4ce:	fc00                	sd	s0,56(s0)
 4d0:	0002                	c.slli64	zero
 4d2:	0080                	addi	s0,sp,64
 4d4:	0000                	unimp
 4d6:	0400                	addi	s0,sp,512
 4d8:	9f5a01a3          	sb	s5,-1565(s4)
 4dc:	0002fc07          	.4byte	0x2fc07
 4e0:	0080                	addi	s0,sp,64
 4e2:	0000                	unimp
 4e4:	1600                	addi	s0,sp,800
 4e6:	00800003          	lb	zero,8(zero) # 8 <_start-0x7ffffff8>
 4ea:	0000                	unimp
 4ec:	0100                	addi	s0,sp,128
 4ee:	005a                	c.slli	zero,0x16
 4f0:	0002f607          	.4byte	0x2f607
 4f4:	0080                	addi	s0,sp,64
 4f6:	0000                	unimp
 4f8:	1200                	addi	s0,sp,288
 4fa:	00800003          	lb	zero,8(zero) # 8 <_start-0x7ffffff8>
 4fe:	0000                	unimp
 500:	0100                	addi	s0,sp,128
 502:	0312075b          	.4byte	0x312075b
 506:	8000                	.2byte	0x8000
 508:	0000                	unimp
 50a:	0000                	unimp
 50c:	0316                	slli	t1,t1,0x5
 50e:	8000                	.2byte	0x8000
 510:	0000                	unimp
 512:	0000                	unimp
 514:	5b01                	li	s6,-32
 516:	0700                	addi	s0,sp,896
 518:	02f6                	slli	t0,t0,0x1d
 51a:	8000                	.2byte	0x8000
 51c:	0000                	unimp
 51e:	0000                	unimp
 520:	030c                	addi	a1,sp,384
 522:	8000                	.2byte	0x8000
 524:	0000                	unimp
 526:	0000                	unimp
 528:	5c01                	li	s8,-32
 52a:	00031407          	.4byte	0x31407
 52e:	0080                	addi	s0,sp,64
 530:	0000                	unimp
 532:	1600                	addi	s0,sp,800
 534:	00800003          	lb	zero,8(zero) # 8 <_start-0x7ffffff8>
 538:	0000                	unimp
 53a:	0100                	addi	s0,sp,128
 53c:	005c                	addi	a5,sp,4
 53e:	0002d607          	.4byte	0x2d607
 542:	0080                	addi	s0,sp,64
 544:	0000                	unimp
 546:	da00                	sw	s0,48(a2)
 548:	0002                	c.slli64	zero
 54a:	0080                	addi	s0,sp,64
 54c:	0000                	unimp
 54e:	0100                	addi	s0,sp,128
 550:	075a                	slli	a4,a4,0x16
 552:	02da                	slli	t0,t0,0x16
 554:	8000                	.2byte	0x8000
 556:	0000                	unimp
 558:	0000                	unimp
 55a:	02dc                	addi	a5,sp,324
 55c:	8000                	.2byte	0x8000
 55e:	0000                	unimp
 560:	0000                	unimp
 562:	a304                	fsd	fs1,0(a4)
 564:	5a01                	li	s4,-32
 566:	079f 02dc 8000      	.byte	0x9f, 0x07, 0xdc, 0x02, 0x00, 0x80
 56c:	0000                	unimp
 56e:	0000                	unimp
 570:	02f6                	slli	t0,t0,0x1d
 572:	8000                	.2byte	0x8000
 574:	0000                	unimp
 576:	0000                	unimp
 578:	5a01                	li	s4,-32
 57a:	0700                	addi	s0,sp,896
 57c:	02d6                	slli	t0,t0,0x15
 57e:	8000                	.2byte	0x8000
 580:	0000                	unimp
 582:	0000                	unimp
 584:	02f4                	addi	a3,sp,332
 586:	8000                	.2byte	0x8000
 588:	0000                	unimp
 58a:	0000                	unimp
 58c:	5b01                	li	s6,-32
 58e:	0002f407          	.4byte	0x2f407
 592:	0080                	addi	s0,sp,64
 594:	0000                	unimp
 596:	f600                	sd	s0,40(a2)
 598:	0002                	c.slli64	zero
 59a:	0080                	addi	s0,sp,64
 59c:	0000                	unimp
 59e:	0100                	addi	s0,sp,128
 5a0:	d607005b          	.4byte	0xd607005b
 5a4:	0002                	c.slli64	zero
 5a6:	0080                	addi	s0,sp,64
 5a8:	0000                	unimp
 5aa:	ea00                	sd	s0,16(a2)
 5ac:	0002                	c.slli64	zero
 5ae:	0080                	addi	s0,sp,64
 5b0:	0000                	unimp
 5b2:	0100                	addi	s0,sp,128
 5b4:	075c                	addi	a5,sp,900
 5b6:	02f4                	addi	a3,sp,332
 5b8:	8000                	.2byte	0x8000
 5ba:	0000                	unimp
 5bc:	0000                	unimp
 5be:	02f6                	slli	t0,t0,0x1d
 5c0:	8000                	.2byte	0x8000
 5c2:	0000                	unimp
 5c4:	0000                	unimp
 5c6:	5c01                	li	s8,-32
 5c8:	0700                	addi	s0,sp,896
 5ca:	02c2                	slli	t0,t0,0x10
 5cc:	8000                	.2byte	0x8000
 5ce:	0000                	unimp
 5d0:	0000                	unimp
 5d2:	02c4                	addi	s1,sp,324
 5d4:	8000                	.2byte	0x8000
 5d6:	0000                	unimp
 5d8:	0000                	unimp
 5da:	5a01                	li	s4,-32
 5dc:	0002c407          	.4byte	0x2c407
 5e0:	0080                	addi	s0,sp,64
 5e2:	0000                	unimp
 5e4:	cc00                	sw	s0,24(s0)
 5e6:	0002                	c.slli64	zero
 5e8:	0080                	addi	s0,sp,64
 5ea:	0000                	unimp
 5ec:	0400                	addi	s0,sp,512
 5ee:	9f5a01a3          	sb	s5,-1565(s4)
 5f2:	0700                	addi	s0,sp,896
 5f4:	02cc                	addi	a1,sp,324
 5f6:	8000                	.2byte	0x8000
 5f8:	0000                	unimp
 5fa:	0000                	unimp
 5fc:	02ce                	slli	t0,t0,0x13
 5fe:	8000                	.2byte	0x8000
 600:	0000                	unimp
 602:	0000                	unimp
 604:	5a01                	li	s4,-32
 606:	0002ce07          	.4byte	0x2ce07
 60a:	0080                	addi	s0,sp,64
 60c:	0000                	unimp
 60e:	d600                	sw	s0,40(a2)
 610:	0002                	c.slli64	zero
 612:	0080                	addi	s0,sp,64
 614:	0000                	unimp
 616:	0400                	addi	s0,sp,512
 618:	9f5a01a3          	sb	s5,-1565(s4)
	...

Disassembly of section .debug_frame:

0000000000000000 <.debug_frame>:
   0:	000c                	.2byte	0xc
   2:	0000                	unimp
   4:	ffff                	.2byte	0xffff
   6:	ffff                	.2byte	0xffff
   8:	7c010003          	lb	zero,1984(sp)
   c:	0d01                	addi	s10,s10,0 # 1a000 <_start-0x7ffe6000>
   e:	0002                	c.slli64	zero
  10:	0014                	.2byte	0x14
  12:	0000                	unimp
  14:	0000                	unimp
  16:	0000                	unimp
  18:	0092                	slli	ra,ra,0x4
  1a:	8000                	.2byte	0x8000
  1c:	0000                	unimp
  1e:	0000                	unimp
  20:	000e                	c.slli	zero,0x3
  22:	0000                	unimp
  24:	0000                	unimp
  26:	0000                	unimp
  28:	0014                	.2byte	0x14
  2a:	0000                	unimp
  2c:	0000                	unimp
  2e:	0000                	unimp
  30:	00a0                	addi	s0,sp,72
  32:	8000                	.2byte	0x8000
  34:	0000                	unimp
  36:	0000                	unimp
  38:	0010                	.2byte	0x10
  3a:	0000                	unimp
  3c:	0000                	unimp
  3e:	0000                	unimp
  40:	0014                	.2byte	0x14
  42:	0000                	unimp
  44:	0000                	unimp
  46:	0000                	unimp
  48:	00b0                	addi	a2,sp,72
  4a:	8000                	.2byte	0x8000
  4c:	0000                	unimp
  4e:	0000                	unimp
  50:	0012                	c.slli	zero,0x4
  52:	0000                	unimp
  54:	0000                	unimp
  56:	0000                	unimp
  58:	0014                	.2byte	0x14
  5a:	0000                	unimp
  5c:	0000                	unimp
  5e:	0000                	unimp
  60:	00c2                	slli	ra,ra,0x10
  62:	8000                	.2byte	0x8000
  64:	0000                	unimp
  66:	0000                	unimp
  68:	0012                	c.slli	zero,0x4
  6a:	0000                	unimp
  6c:	0000                	unimp
  6e:	0000                	unimp
  70:	0014                	.2byte	0x14
  72:	0000                	unimp
  74:	0000                	unimp
  76:	0000                	unimp
  78:	00d4                	addi	a3,sp,68
  7a:	8000                	.2byte	0x8000
  7c:	0000                	unimp
  7e:	0000                	unimp
  80:	0012                	c.slli	zero,0x4
  82:	0000                	unimp
  84:	0000                	unimp
  86:	0000                	unimp
  88:	0034                	addi	a3,sp,8
  8a:	0000                	unimp
  8c:	0000                	unimp
  8e:	0000                	unimp
  90:	03da                	slli	t2,t2,0x16
  92:	8000                	.2byte	0x8000
  94:	0000                	unimp
  96:	0000                	unimp
  98:	012e                	slli	sp,sp,0xb
  9a:	0000                	unimp
  9c:	0000                	unimp
  9e:	0000                	unimp
  a0:	0e42                	slli	t3,t3,0x10
  a2:	5670                	lw	a2,108(a2)
  a4:	0281                	addi	t0,t0,0
  a6:	0488                	addi	a0,sp,576
  a8:	0689                	addi	a3,a3,2
  aa:	0892                	slli	a7,a7,0x4
  ac:	0c940a93          	addi	s5,s0,201
  b0:	0e95                	addi	t4,t4,5
  b2:	12a8                	addi	a0,sp,360
  b4:	14a9                	addi	s1,s1,-22
  b6:	16b2                	slli	a3,a3,0x2c
  b8:	000018b3          	sll	a7,zero,zero
  bc:	0000                	unimp
  be:	0000                	unimp
  c0:	000c                	.2byte	0xc
  c2:	0000                	unimp
  c4:	ffff                	.2byte	0xffff
  c6:	ffff                	.2byte	0xffff
  c8:	7c010003          	lb	zero,1984(sp)
  cc:	0d01                	addi	s10,s10,0
  ce:	0002                	c.slli64	zero
  d0:	0024                	addi	s1,sp,8
  d2:	0000                	unimp
  d4:	00c0                	addi	s0,sp,68
  d6:	0000                	unimp
  d8:	00e6                	slli	ra,ra,0x19
  da:	8000                	.2byte	0x8000
  dc:	0000                	unimp
  de:	0000                	unimp
  e0:	0088                	addi	a0,sp,64
  e2:	0000                	unimp
  e4:	0000                	unimp
  e6:	0000                	unimp
  e8:	0e42                	slli	t3,t3,0x10
  ea:	0190                	addi	a2,sp,192
  ec:	8142                	mv	sp,a6
  ee:	0202                	c.slli64	tp
  f0:	c180                	sw	s0,0(a1)
  f2:	0e42                	slli	t3,t3,0x10
  f4:	0000                	unimp
  f6:	0000                	unimp
  f8:	0014                	.2byte	0x14
  fa:	0000                	unimp
  fc:	00c0                	addi	s0,sp,68
  fe:	0000                	unimp
 100:	016e                	slli	sp,sp,0x1b
 102:	8000                	.2byte	0x8000
 104:	0000                	unimp
 106:	0000                	unimp
 108:	0012                	c.slli	zero,0x4
 10a:	0000                	unimp
 10c:	0000                	unimp
 10e:	0000                	unimp
 110:	0014                	.2byte	0x14
 112:	0000                	unimp
 114:	00c0                	addi	s0,sp,68
 116:	0000                	unimp
 118:	0180                	addi	s0,sp,192
 11a:	8000                	.2byte	0x8000
 11c:	0000                	unimp
 11e:	0000                	unimp
 120:	000e                	c.slli	zero,0x3
 122:	0000                	unimp
 124:	0000                	unimp
 126:	0000                	unimp
 128:	0014                	.2byte	0x14
 12a:	0000                	unimp
 12c:	00c0                	addi	s0,sp,68
 12e:	0000                	unimp
 130:	018e                	slli	gp,gp,0x3
 132:	8000                	.2byte	0x8000
 134:	0000                	unimp
 136:	0000                	unimp
 138:	0002                	c.slli64	zero
 13a:	0000                	unimp
 13c:	0000                	unimp
 13e:	0000                	unimp
 140:	0014                	.2byte	0x14
 142:	0000                	unimp
 144:	00c0                	addi	s0,sp,68
 146:	0000                	unimp
 148:	0190                	addi	a2,sp,192
 14a:	8000                	.2byte	0x8000
 14c:	0000                	unimp
 14e:	0000                	unimp
 150:	0002                	c.slli64	zero
 152:	0000                	unimp
 154:	0000                	unimp
 156:	0000                	unimp
 158:	0014                	.2byte	0x14
 15a:	0000                	unimp
 15c:	00c0                	addi	s0,sp,68
 15e:	0000                	unimp
 160:	0192                	slli	gp,gp,0x4
 162:	8000                	.2byte	0x8000
 164:	0000                	unimp
 166:	0000                	unimp
 168:	0002                	c.slli64	zero
 16a:	0000                	unimp
 16c:	0000                	unimp
 16e:	0000                	unimp
 170:	0014                	.2byte	0x14
 172:	0000                	unimp
 174:	00c0                	addi	s0,sp,68
 176:	0000                	unimp
 178:	0194                	addi	a3,sp,192
 17a:	8000                	.2byte	0x8000
 17c:	0000                	unimp
 17e:	0000                	unimp
 180:	0002                	c.slli64	zero
 182:	0000                	unimp
 184:	0000                	unimp
 186:	0000                	unimp
 188:	0014                	.2byte	0x14
 18a:	0000                	unimp
 18c:	00c0                	addi	s0,sp,68
 18e:	0000                	unimp
 190:	0196                	slli	gp,gp,0x5
 192:	8000                	.2byte	0x8000
 194:	0000                	unimp
 196:	0000                	unimp
 198:	0002                	c.slli64	zero
 19a:	0000                	unimp
 19c:	0000                	unimp
 19e:	0000                	unimp
 1a0:	0014                	.2byte	0x14
 1a2:	0000                	unimp
 1a4:	00c0                	addi	s0,sp,68
 1a6:	0000                	unimp
 1a8:	0198                	addi	a4,sp,192
 1aa:	8000                	.2byte	0x8000
 1ac:	0000                	unimp
 1ae:	0000                	unimp
 1b0:	0002                	c.slli64	zero
 1b2:	0000                	unimp
 1b4:	0000                	unimp
 1b6:	0000                	unimp
 1b8:	0014                	.2byte	0x14
 1ba:	0000                	unimp
 1bc:	00c0                	addi	s0,sp,68
 1be:	0000                	unimp
 1c0:	019a                	slli	gp,gp,0x6
 1c2:	8000                	.2byte	0x8000
 1c4:	0000                	unimp
 1c6:	0000                	unimp
 1c8:	0002                	c.slli64	zero
 1ca:	0000                	unimp
 1cc:	0000                	unimp
 1ce:	0000                	unimp
 1d0:	0014                	.2byte	0x14
 1d2:	0000                	unimp
 1d4:	00c0                	addi	s0,sp,68
 1d6:	0000                	unimp
 1d8:	019c                	addi	a5,sp,192
 1da:	8000                	.2byte	0x8000
 1dc:	0000                	unimp
 1de:	0000                	unimp
 1e0:	0002                	c.slli64	zero
 1e2:	0000                	unimp
 1e4:	0000                	unimp
 1e6:	0000                	unimp
 1e8:	0014                	.2byte	0x14
 1ea:	0000                	unimp
 1ec:	00c0                	addi	s0,sp,68
 1ee:	0000                	unimp
 1f0:	019e                	slli	gp,gp,0x7
 1f2:	8000                	.2byte	0x8000
 1f4:	0000                	unimp
 1f6:	0000                	unimp
 1f8:	0002                	c.slli64	zero
 1fa:	0000                	unimp
 1fc:	0000                	unimp
 1fe:	0000                	unimp
 200:	0014                	.2byte	0x14
 202:	0000                	unimp
 204:	00c0                	addi	s0,sp,68
 206:	0000                	unimp
 208:	01a0                	addi	s0,sp,200
 20a:	8000                	.2byte	0x8000
 20c:	0000                	unimp
 20e:	0000                	unimp
 210:	0002                	c.slli64	zero
 212:	0000                	unimp
 214:	0000                	unimp
 216:	0000                	unimp
 218:	0014                	.2byte	0x14
 21a:	0000                	unimp
 21c:	00c0                	addi	s0,sp,68
 21e:	0000                	unimp
 220:	01a2                	slli	gp,gp,0x8
 222:	8000                	.2byte	0x8000
 224:	0000                	unimp
 226:	0000                	unimp
 228:	0002                	c.slli64	zero
 22a:	0000                	unimp
 22c:	0000                	unimp
 22e:	0000                	unimp
 230:	0024                	addi	s1,sp,8
 232:	0000                	unimp
 234:	00c0                	addi	s0,sp,68
 236:	0000                	unimp
 238:	01a4                	addi	s1,sp,200
 23a:	8000                	.2byte	0x8000
 23c:	0000                	unimp
 23e:	0000                	unimp
 240:	001a                	c.slli	zero,0x6
 242:	0000                	unimp
 244:	0000                	unimp
 246:	0000                	unimp
 248:	0e42                	slli	t3,t3,0x10
 24a:	4e20                	lw	s0,88(a2)
 24c:	0281                	addi	t0,t0,0
 24e:	c146                	sw	a7,128(sp)
 250:	0e42                	slli	t3,t3,0x10
 252:	0000                	unimp
 254:	0000                	unimp
 256:	0000                	unimp
 258:	002c                	addi	a1,sp,8
 25a:	0000                	unimp
 25c:	00c0                	addi	s0,sp,68
 25e:	0000                	unimp
 260:	01be                	slli	gp,gp,0xf
 262:	8000                	.2byte	0x8000
 264:	0000                	unimp
 266:	0000                	unimp
 268:	004a                	c.slli	zero,0x12
 26a:	0000                	unimp
 26c:	0000                	unimp
 26e:	0000                	unimp
 270:	0e50                	addi	a2,sp,788
 272:	4610                	lw	a2,8(a2)
 274:	0281                	addi	t0,t0,0
 276:	0a58                	addi	a4,sp,276
 278:	48c1                	li	a7,16
 27a:	000e                	c.slli	zero,0x3
 27c:	0b42                	slli	s6,s6,0x10
 27e:	0e50                	addi	a2,sp,788
 280:	c100                	sw	s0,0(a0)
 282:	0000                	unimp
 284:	0000                	unimp
 286:	0000                	unimp
 288:	000c                	.2byte	0xc
 28a:	0000                	unimp
 28c:	ffff                	.2byte	0xffff
 28e:	ffff                	.2byte	0xffff
 290:	7c010003          	lb	zero,1984(sp)
 294:	0d01                	addi	s10,s10,0
 296:	0002                	c.slli64	zero
 298:	0014                	.2byte	0x14
 29a:	0000                	unimp
 29c:	0288                	addi	a0,sp,320
 29e:	0000                	unimp
 2a0:	0208                	addi	a0,sp,256
 2a2:	8000                	.2byte	0x8000
 2a4:	0000                	unimp
 2a6:	0000                	unimp
 2a8:	0002                	c.slli64	zero
 2aa:	0000                	unimp
 2ac:	0000                	unimp
 2ae:	0000                	unimp
 2b0:	0014                	.2byte	0x14
 2b2:	0000                	unimp
 2b4:	0288                	addi	a0,sp,320
 2b6:	0000                	unimp
 2b8:	020a                	slli	tp,tp,0x2
 2ba:	8000                	.2byte	0x8000
 2bc:	0000                	unimp
 2be:	0000                	unimp
 2c0:	0002                	c.slli64	zero
 2c2:	0000                	unimp
 2c4:	0000                	unimp
 2c6:	0000                	unimp
 2c8:	0024                	addi	s1,sp,8
 2ca:	0000                	unimp
 2cc:	0288                	addi	a0,sp,320
 2ce:	0000                	unimp
 2d0:	020c                	addi	a1,sp,256
 2d2:	8000                	.2byte	0x8000
 2d4:	0000                	unimp
 2d6:	0000                	unimp
 2d8:	0024                	addi	s1,sp,8
 2da:	0000                	unimp
 2dc:	0000                	unimp
 2de:	0000                	unimp
 2e0:	0e42                	slli	t3,t3,0x10
 2e2:	4410                	lw	a2,8(s0)
 2e4:	0488                	addi	a0,sp,576
 2e6:	0281                	addi	t0,t0,0
 2e8:	c158                	sw	a4,4(a0)
 2ea:	c842                	sw	a6,16(sp)
 2ec:	0e42                	slli	t3,t3,0x10
 2ee:	0000                	unimp
 2f0:	000c                	.2byte	0xc
 2f2:	0000                	unimp
 2f4:	ffff                	.2byte	0xffff
 2f6:	ffff                	.2byte	0xffff
 2f8:	7c010003          	lb	zero,1984(sp)
 2fc:	0d01                	addi	s10,s10,0
 2fe:	0002                	c.slli64	zero
 300:	0014                	.2byte	0x14
 302:	0000                	unimp
 304:	02f0                	addi	a2,sp,332
 306:	0000                	unimp
 308:	0230                	addi	a2,sp,264
 30a:	8000                	.2byte	0x8000
 30c:	0000                	unimp
 30e:	0000                	unimp
 310:	0008                	.2byte	0x8
 312:	0000                	unimp
 314:	0000                	unimp
 316:	0000                	unimp
 318:	0014                	.2byte	0x14
 31a:	0000                	unimp
 31c:	02f0                	addi	a2,sp,332
 31e:	0000                	unimp
 320:	0238                	addi	a4,sp,264
 322:	8000                	.2byte	0x8000
 324:	0000                	unimp
 326:	0000                	unimp
 328:	000c                	.2byte	0xc
 32a:	0000                	unimp
 32c:	0000                	unimp
 32e:	0000                	unimp
 330:	000c                	.2byte	0xc
 332:	0000                	unimp
 334:	ffff                	.2byte	0xffff
 336:	ffff                	.2byte	0xffff
 338:	7c010003          	lb	zero,1984(sp)
 33c:	0d01                	addi	s10,s10,0
 33e:	0002                	c.slli64	zero
 340:	0014                	.2byte	0x14
 342:	0000                	unimp
 344:	0330                	addi	a2,sp,392
 346:	0000                	unimp
 348:	0244                	addi	s1,sp,260
 34a:	8000                	.2byte	0x8000
 34c:	0000                	unimp
 34e:	0000                	unimp
 350:	0014                	.2byte	0x14
 352:	0000                	unimp
 354:	0000                	unimp
 356:	0000                	unimp
 358:	0014                	.2byte	0x14
 35a:	0000                	unimp
 35c:	0330                	addi	a2,sp,392
 35e:	0000                	unimp
 360:	0258                	addi	a4,sp,260
 362:	8000                	.2byte	0x8000
 364:	0000                	unimp
 366:	0000                	unimp
 368:	0012                	c.slli	zero,0x4
 36a:	0000                	unimp
 36c:	0000                	unimp
 36e:	0000                	unimp
 370:	0014                	.2byte	0x14
 372:	0000                	unimp
 374:	0330                	addi	a2,sp,392
 376:	0000                	unimp
 378:	026a                	slli	tp,tp,0x1a
 37a:	8000                	.2byte	0x8000
 37c:	0000                	unimp
 37e:	0000                	unimp
 380:	000c                	.2byte	0xc
 382:	0000                	unimp
 384:	0000                	unimp
 386:	0000                	unimp
 388:	000c                	.2byte	0xc
 38a:	0000                	unimp
 38c:	ffff                	.2byte	0xffff
 38e:	ffff                	.2byte	0xffff
 390:	7c010003          	lb	zero,1984(sp)
 394:	0d01                	addi	s10,s10,0
 396:	0002                	c.slli64	zero
 398:	0014                	.2byte	0x14
 39a:	0000                	unimp
 39c:	0388                	addi	a0,sp,448
 39e:	0000                	unimp
 3a0:	0276                	slli	tp,tp,0x1d
 3a2:	8000                	.2byte	0x8000
 3a4:	0000                	unimp
 3a6:	0000                	unimp
 3a8:	0008                	.2byte	0x8
 3aa:	0000                	unimp
 3ac:	0000                	unimp
 3ae:	0000                	unimp
 3b0:	0014                	.2byte	0x14
 3b2:	0000                	unimp
 3b4:	0388                	addi	a0,sp,448
 3b6:	0000                	unimp
 3b8:	027e                	slli	tp,tp,0x1f
 3ba:	8000                	.2byte	0x8000
 3bc:	0000                	unimp
 3be:	0000                	unimp
 3c0:	000a                	c.slli	zero,0x2
 3c2:	0000                	unimp
 3c4:	0000                	unimp
 3c6:	0000                	unimp
 3c8:	0014                	.2byte	0x14
 3ca:	0000                	unimp
 3cc:	0388                	addi	a0,sp,448
 3ce:	0000                	unimp
 3d0:	0288                	addi	a0,sp,320
 3d2:	8000                	.2byte	0x8000
 3d4:	0000                	unimp
 3d6:	0000                	unimp
 3d8:	0014                	.2byte	0x14
 3da:	0000                	unimp
 3dc:	0000                	unimp
 3de:	0000                	unimp
 3e0:	000c                	.2byte	0xc
 3e2:	0000                	unimp
 3e4:	ffff                	.2byte	0xffff
 3e6:	ffff                	.2byte	0xffff
 3e8:	7c010003          	lb	zero,1984(sp)
 3ec:	0d01                	addi	s10,s10,0
 3ee:	0002                	c.slli64	zero
 3f0:	0014                	.2byte	0x14
 3f2:	0000                	unimp
 3f4:	03e0                	addi	s0,sp,460
 3f6:	0000                	unimp
 3f8:	029c                	addi	a5,sp,320
 3fa:	8000                	.2byte	0x8000
 3fc:	0000                	unimp
 3fe:	0000                	unimp
 400:	0002                	c.slli64	zero
 402:	0000                	unimp
 404:	0000                	unimp
 406:	0000                	unimp
 408:	000c                	.2byte	0xc
 40a:	0000                	unimp
 40c:	ffff                	.2byte	0xffff
 40e:	ffff                	.2byte	0xffff
 410:	7c010003          	lb	zero,1984(sp)
 414:	0d01                	addi	s10,s10,0
 416:	0002                	c.slli64	zero
 418:	0014                	.2byte	0x14
 41a:	0000                	unimp
 41c:	0408                	addi	a0,sp,512
 41e:	0000                	unimp
 420:	029e                	slli	t0,t0,0x7
 422:	8000                	.2byte	0x8000
 424:	0000                	unimp
 426:	0000                	unimp
 428:	0024                	addi	s1,sp,8
 42a:	0000                	unimp
 42c:	0000                	unimp
 42e:	0000                	unimp
 430:	0014                	.2byte	0x14
 432:	0000                	unimp
 434:	0408                	addi	a0,sp,512
 436:	0000                	unimp
 438:	02c2                	slli	t0,t0,0x10
 43a:	8000                	.2byte	0x8000
 43c:	0000                	unimp
 43e:	0000                	unimp
 440:	000a                	c.slli	zero,0x2
 442:	0000                	unimp
 444:	0000                	unimp
 446:	0000                	unimp
 448:	0014                	.2byte	0x14
 44a:	0000                	unimp
 44c:	0408                	addi	a0,sp,512
 44e:	0000                	unimp
 450:	02cc                	addi	a1,sp,324
 452:	8000                	.2byte	0x8000
 454:	0000                	unimp
 456:	0000                	unimp
 458:	000a                	c.slli	zero,0x2
 45a:	0000                	unimp
 45c:	0000                	unimp
 45e:	0000                	unimp
 460:	0014                	.2byte	0x14
 462:	0000                	unimp
 464:	0408                	addi	a0,sp,512
 466:	0000                	unimp
 468:	02d6                	slli	t0,t0,0x15
 46a:	8000                	.2byte	0x8000
 46c:	0000                	unimp
 46e:	0000                	unimp
 470:	0020                	addi	s0,sp,8
 472:	0000                	unimp
 474:	0000                	unimp
 476:	0000                	unimp
 478:	0014                	.2byte	0x14
 47a:	0000                	unimp
 47c:	0408                	addi	a0,sp,512
 47e:	0000                	unimp
 480:	02f6                	slli	t0,t0,0x1d
 482:	8000                	.2byte	0x8000
 484:	0000                	unimp
 486:	0000                	unimp
 488:	0020                	addi	s0,sp,8
 48a:	0000                	unimp
 48c:	0000                	unimp
	...
